

HI-TECH Software PIC LITE Macro Assembler V9.82 build 9453 
                                                                                               Wed May 28 10:01:35 2014

HI-TECH Software Omniscient Code Generator (Lite mode) build 9453
     1  0000                     opt subtitle "HI-TECH Software Omniscient Code Generator (Lite mode) build 9453"
     2                           
     3                           opt pagewidth 120
     4                           
     5                           	opt lm
     6                           
     7                           	processor	16F690
     8                           clrc	macro
     9                           	bcf	3,0
    10  0000                     	endm
    11                           clrz	macro
    12                           	bcf	3,2
    13  0000                     	endm
    14                           setc	macro
    15                           	bsf	3,0
    16  0000                     	endm
    17                           setz	macro
    18                           	bsf	3,2
    19  0000                     	endm
    20                           skipc	macro
    21                           	btfss	3,0
    22  0000                     	endm
    23                           skipz	macro
    24                           	btfss	3,2
    25  0000                     	endm
    26                           skipnc	macro
    27                           	btfsc	3,0
    28  0000                     	endm
    29                           skipnz	macro
    30                           	btfsc	3,2
    31  0000                     	endm
    32  0000                     indf	equ	0
    33  0000                     indf0	equ	0
    34  0002                     pc	equ	2
    35  0002                     pcl	equ	2
    36  0003                     status	equ	3
    37  0004                     fsr	equ	4
    38  0004                     fsr0	equ	4
    39  0001                     c	equ	1
    40  0000                     z	equ	0
    41  000A                     pclath	equ	10
    42                           # 37 "U:\_218c Teams\BringItOn\218C Project - World Cup\COACH CODE WE ARE USING\MasterCo
                                 ach\MasterCoach\CoachMasterCode.c"
    43                           	psect config,class=CONFIG,delta=2 ;#
    44                           # 37 "U:\_218c Teams\BringItOn\218C Project - World Cup\COACH CODE WE ARE USING\MasterCo
                                 ach\MasterCoach\CoachMasterCode.c"
    45  2007  FFE2               	dw 0xFFFF & 0xFFF7 & 0xFFEF & 0xFFFA & 0xFFFF ;#
    46                           	FNCALL	_main,_InitTimers
    47                           	FNCALL	_main,_InitPorts
    48                           	FNCALL	_main,_InitComm
    49                           	FNCALL	_main,_InitInterrupts
    50                           	FNCALL	_main,_Encode_Message
    51                           	FNCALL	_main,_CalculateChecksum
    52                           	FNCALL	_main,_XBee_State
    53                           	FNCALL	_main,_Process_Status
    54                           	FNROOT	_main
    55                           	FNCALL	_ISR,_Process_SPI
    56                           	FNCALL	_ISR,i1_XBee_State
    57                           	FNCALL	intlevel1,_ISR
    58                           	global	intlevel1
    59                           	FNROOT	intlevel1
    60                           	global	_AUX
    61                           	global	_CurrentType
    62                           	global	_DIR
    63                           	global	_NextByteOut
    64                           	global	_PAIRDATA
    65                           	global	_RESPDATA
    66                           	global	_SDATA
    67                           	global	_SPD
    68                           	global	_TAGINFO
    69                           	global	_X_API
    70                           	global	_X_AddrLSB
    71                           	global	_X_AddrMSB
    72                           	global	_X_CMD
    73                           	global	_X_FID
    74                           	global	_X_RF1
    75                           	global	_X_RF2
    76                           	global	_X_RF3
    77                           	global	_X_RF4
    78                           	global	_X_RF5
    79                           	global	_X_Transition
    80                           	global	_SwitchMask
    81                           psect	idataBANK0,class=CODE,space=0,delta=2
    82                           global __pidataBANK0
    83  0518                     __pidataBANK0:
    84                           	file	"U:\_218c Teams\BringItOn\218C Project - World Cup\COACH CODE WE ARE USING\MasterC
                                 oach\MasterCoach\CoachMasterCode.c"
    85                           	line	132
    86                           
    87                           ;initializer for _AUX
    88  0518  34FF               	retlw	0FFh
    89                           	line	122
    90                           
    91                           ;initializer for _CurrentType
    92  0519  3406               	retlw	06h
    93                           	line	131
    94                           
    95                           ;initializer for _DIR
    96  051A  3432               	retlw	032h
    97                           	line	86
    98                           
    99                           ;initializer for _NextByteOut
   100  051B  347E               	retlw	07Eh
   101                           	line	128
   102                           
   103                           ;initializer for _PAIRDATA
   104  051C  3406               	retlw	06h
   105                           	line	129
   106                           
   107                           ;initializer for _RESPDATA
   108  051D  3407               	retlw	07h
   109                           	line	127
   110                           
   111                           ;initializer for _SDATA
   112  051E  349F               	retlw	09Fh
   113                           	line	130
   114                           
   115                           ;initializer for _SPD
   116  051F  347F               	retlw	07Fh
   117                           	line	126
   118                           
   119                           ;initializer for _TAGINFO
   120  0520  3407               	retlw	07h
   121                           	line	93
   122                           
   123                           ;initializer for _X_API
   124  0521  3401               	retlw	01h
   125                           	line	96
   126                           
   127                           ;initializer for _X_AddrLSB
   128  0522  3488               	retlw	-120
   129                           	line	95
   130                           
   131                           ;initializer for _X_AddrMSB
   132  0523  3420               	retlw	020h
   133                           	line	98
   134                           
   135                           ;initializer for _X_CMD
   136  0524  3401               	retlw	01h
   137                           	line	94
   138                           
   139                           ;initializer for _X_FID
   140  0525  3401               	retlw	01h
   141                           	line	99
   142                           
   143                           ;initializer for _X_RF1
   144  0526  340A               	retlw	0Ah
   145                           	line	100
   146                           
   147                           ;initializer for _X_RF2
   148  0527  340B               	retlw	0Bh
   149                           	line	101
   150                           
   151                           ;initializer for _X_RF3
   152  0528  340C               	retlw	0Ch
   153                           	line	102
   154                           
   155                           ;initializer for _X_RF4
   156  0529  340D               	retlw	0Dh
   157                           	line	103
   158                           
   159                           ;initializer for _X_RF5
   160  052A  340E               	retlw	0Eh
   161                           	line	80
   162                           
   163                           ;initializer for _X_Transition
   164  052B  3401               	retlw	01h
   165                           psect	idataCOMMON,class=CODE,space=0,delta=2
   166                           global __pidataCOMMON
   167  0577                     __pidataCOMMON:
   168                           	line	139
   169                           
   170                           ;initializer for _SwitchMask
   171  0577  3407               	retlw	07h
   172                           	global	_BytesIn
   173                           	global	_BytesOut
   174                           	global	_TXData
   175                           	global	_ByteIn
   176                           	global	_CommActive
   177                           	global	_CurrentR_State
   178                           	global	_CurrentX_State
   179                           	global	_LostCommCounter
   180                           	global	_MessageCounter
   181                           	global	_NextR_State
   182                           	global	_NextX_State
   183                           	global	_PORTC_Copy
   184                           	global	_Paired
   185                           	global	_R_API
   186                           	global	_R_AddrLSB
   187                           	global	_R_AddrMSB
   188                           	global	_R_CMD
   189                           	global	_R_FID
   190                           	global	_R_LengthLSB
   191                           	global	_R_Options
   192                           	global	_R_RF1
   193                           	global	_R_STATUS
   194                           	global	_R_SigStr
   195                           	global	_R_Transition
   196                           	global	_SEND
   197                           	global	_SendKick
   198                           	global	_SendWhimsy
   199                           	global	_TRANS
   200                           	global	_WHIM
   201                           	global	_X_LengthLSB
   202                           	global	_X_LengthMSB
   203                           	global	_X_Options
   204                           	global	_i
   205                           	global	_TOCounter
   206                           	global	_PlayerAddress
   207                           	global	_R_LengthMSB
   208                           	global	_SPI_Var
   209                           	global	_SwitchState
   210                           	global	_INTCON
   211  000B                     _INTCON	set	11
   212                           	global	_PIR1
   213  000C                     _PIR1	set	12
   214                           	global	_PORTA
   215  0005                     _PORTA	set	5
   216                           	global	_PORTB
   217  0006                     _PORTB	set	6
   218                           	global	_PORTC
   219  0007                     _PORTC	set	7
   220                           	global	_RCREG
   221  001A                     _RCREG	set	26
   222                           	global	_RCSTA
   223  0018                     _RCSTA	set	24
   224                           	global	_SSPBUF
   225  0013                     _SSPBUF	set	19
   226                           	global	_T2CON
   227  0012                     _T2CON	set	18
   228                           	global	_TXREG
   229  0019                     _TXREG	set	25
   230                           	global	_CARRY
   231  0018                     _CARRY	set	24
   232                           	global	_CKP
   233  00A4                     _CKP	set	164
   234                           	global	_GIE
   235  005F                     _GIE	set	95
   236                           	global	_RABIF
   237  0058                     _RABIF	set	88
   238                           	global	_RCIF
   239  0065                     _RCIF	set	101
   240                           	global	_SSPEN
   241  00A5                     _SSPEN	set	165
   242                           	global	_SSPIF
   243  0063                     _SSPIF	set	99
   244                           	global	_SSPM0
   245  00A0                     _SSPM0	set	160
   246                           	global	_SSPM1
   247  00A1                     _SSPM1	set	161
   248                           	global	_SSPM2
   249  00A2                     _SSPM2	set	162
   250                           	global	_SSPM3
   251  00A3                     _SSPM3	set	163
   252                           	global	_SSPOV
   253  00A6                     _SSPOV	set	166
   254                           	global	_TMR2IF
   255  0061                     _TMR2IF	set	97
   256                           	global	_TXIF
   257  0064                     _TXIF	set	100
   258                           	global	_WCOL
   259  00A7                     _WCOL	set	167
   260                           	global	_IOCA
   261  0096                     _IOCA	set	150
   262                           	global	_PR2
   263  0092                     _PR2	set	146
   264                           	global	_SPBRG
   265  0099                     _SPBRG	set	153
   266                           	global	_SPBRGH
   267  009A                     _SPBRGH	set	154
   268                           	global	_SSPSTAT
   269  0094                     _SSPSTAT	set	148
   270                           	global	_TRISA
   271  0085                     _TRISA	set	133
   272                           	global	_TRISB
   273  0086                     _TRISB	set	134
   274                           	global	_TRISC
   275  0087                     _TRISC	set	135
   276                           	global	_TXSTA
   277  0098                     _TXSTA	set	152
   278                           	global	_RCIE
   279  0465                     _RCIE	set	1125
   280                           	global	_SSPIE
   281  0463                     _SSPIE	set	1123
   282                           	global	_TMR2IE
   283  0461                     _TMR2IE	set	1121
   284                           	global	_ANSEL
   285  011E                     _ANSEL	set	286
   286                           	global	_ANSELH
   287  011F                     _ANSELH	set	287
   288                           	global	_EEADR
   289  010D                     _EEADR	set	269
   290                           	global	_EEDATA
   291  010C                     _EEDATA	set	268
   292                           	global	_EECON1
   293  018C                     _EECON1	set	396
   294                           	global	_EECON2
   295  018D                     _EECON2	set	397
   296                           	global	_RD
   297  0C60                     _RD	set	3168
   298                           	global	_WR
   299  0C61                     _WR	set	3169
   300                           	global	_WREN
   301  0C62                     _WREN	set	3170
   302                           	file	"CoachCodeV2.as"
   303                           	line	#
   304                           psect cinit,class=CODE,delta=2
   305                           global start_initialization
   306  04CB                     start_initialization:
   307                           
   308                           psect	bssCOMMON,class=COMMON,space=1
   309                           global __pbssCOMMON
   310  0077                     __pbssCOMMON:
   311  0077                     _TOCounter:
   312  0077                            ds      2
   313                           
   314  0079                     _PlayerAddress:
   315  0079                            ds      1
   316                           
   317  007A                     _R_LengthMSB:
   318  007A                            ds      1
   319                           
   320  007B                     _SPI_Var:
   321  007B                            ds      1
   322                           
   323  007C                     _SwitchState:
   324  007C                            ds      1
   325                           
   326                           psect	dataCOMMON,class=COMMON,space=1
   327                           global __pdataCOMMON
   328  007D                     __pdataCOMMON:
   329                           	file	"U:\_218c Teams\BringItOn\218C Project - World Cup\COACH CODE WE ARE USING\MasterC
                                 oach\MasterCoach\CoachMasterCode.c"
   330  007D                     _SwitchMask:
   331  007D                            ds      1
   332                           
   333                           psect	bssBANK0,class=BANK0,space=1
   334                           global __pbssBANK0
   335  0020                     __pbssBANK0:
   336  0020                     _BytesIn:
   337  0020                            ds      8
   338                           
   339  0028                     _BytesOut:
   340  0028                            ds      8
   341                           
   342  0030                     _TXData:
   343  0030                            ds      6
   344                           
   345  0036                     _ByteIn:
   346  0036                            ds      1
   347                           
   348  0037                     _CommActive:
   349  0037                            ds      1
   350                           
   351  0038                     _CurrentR_State:
   352  0038                            ds      1
   353                           
   354  0039                     _CurrentX_State:
   355  0039                            ds      1
   356                           
   357  003A                     _LostCommCounter:
   358  003A                            ds      1
   359                           
   360  003B                     _MessageCounter:
   361  003B                            ds      1
   362                           
   363  003C                     _NextR_State:
   364  003C                            ds      1
   365                           
   366  003D                     _NextX_State:
   367  003D                            ds      1
   368                           
   369  003E                     _PORTC_Copy:
   370  003E                            ds      1
   371                           
   372  003F                     _Paired:
   373  003F                            ds      1
   374                           
   375  0040                     _R_API:
   376  0040                            ds      1
   377                           
   378  0041                     _R_AddrLSB:
   379  0041                            ds      1
   380                           
   381  0042                     _R_AddrMSB:
   382  0042                            ds      1
   383                           
   384  0043                     _R_CMD:
   385  0043                            ds      1
   386                           
   387  0044                     _R_FID:
   388  0044                            ds      1
   389                           
   390  0045                     _R_LengthLSB:
   391  0045                            ds      1
   392                           
   393  0046                     _R_Options:
   394  0046                            ds      1
   395                           
   396  0047                     _R_RF1:
   397  0047                            ds      1
   398                           
   399  0048                     _R_STATUS:
   400  0048                            ds      1
   401                           
   402  0049                     _R_SigStr:
   403  0049                            ds      1
   404                           
   405  004A                     _R_Transition:
   406  004A                            ds      1
   407                           
   408  004B                     _SEND:
   409  004B                            ds      1
   410                           
   411  004C                     _SendKick:
   412  004C                            ds      1
   413                           
   414  004D                     _SendWhimsy:
   415  004D                            ds      1
   416                           
   417  004E                     _TRANS:
   418  004E                            ds      1
   419                           
   420  004F                     _WHIM:
   421  004F                            ds      1
   422                           
   423  0050                     _X_LengthLSB:
   424  0050                            ds      1
   425                           
   426  0051                     _X_LengthMSB:
   427  0051                            ds      1
   428                           
   429  0052                     _X_Options:
   430  0052                            ds      1
   431                           
   432  0053                     _i:
   433  0053                            ds      1
   434                           
   435                           psect	dataBANK0,class=BANK0,space=1
   436                           global __pdataBANK0
   437  0054                     __pdataBANK0:
   438                           	file	"U:\_218c Teams\BringItOn\218C Project - World Cup\COACH CODE WE ARE USING\MasterC
                                 oach\MasterCoach\CoachMasterCode.c"
   439                           	line	132
   440  0054                     _AUX:
   441  0054                            ds      1
   442                           
   443                           psect	dataBANK0
   444                           	file	"U:\_218c Teams\BringItOn\218C Project - World Cup\COACH CODE WE ARE USING\MasterC
                                 oach\MasterCoach\CoachMasterCode.c"
   445                           	line	122
   446  0055                     _CurrentType:
   447  0055                            ds      1
   448                           
   449                           psect	dataBANK0
   450                           	file	"U:\_218c Teams\BringItOn\218C Project - World Cup\COACH CODE WE ARE USING\MasterC
                                 oach\MasterCoach\CoachMasterCode.c"
   451                           	line	131
   452  0056                     _DIR:
   453  0056                            ds      1
   454                           
   455                           psect	dataBANK0
   456                           	file	"U:\_218c Teams\BringItOn\218C Project - World Cup\COACH CODE WE ARE USING\MasterC
                                 oach\MasterCoach\CoachMasterCode.c"
   457                           	line	86
   458  0057                     _NextByteOut:
   459  0057                            ds      1
   460                           
   461                           psect	dataBANK0
   462                           	file	"U:\_218c Teams\BringItOn\218C Project - World Cup\COACH CODE WE ARE USING\MasterC
                                 oach\MasterCoach\CoachMasterCode.c"
   463                           	line	128
   464  0058                     _PAIRDATA:
   465  0058                            ds      1
   466                           
   467                           psect	dataBANK0
   468                           	file	"U:\_218c Teams\BringItOn\218C Project - World Cup\COACH CODE WE ARE USING\MasterC
                                 oach\MasterCoach\CoachMasterCode.c"
   469                           	line	129
   470  0059                     _RESPDATA:
   471  0059                            ds      1
   472                           
   473                           psect	dataBANK0
   474                           	file	"U:\_218c Teams\BringItOn\218C Project - World Cup\COACH CODE WE ARE USING\MasterC
                                 oach\MasterCoach\CoachMasterCode.c"
   475                           	line	127
   476  005A                     _SDATA:
   477  005A                            ds      1
   478                           
   479                           psect	dataBANK0
   480                           	file	"U:\_218c Teams\BringItOn\218C Project - World Cup\COACH CODE WE ARE USING\MasterC
                                 oach\MasterCoach\CoachMasterCode.c"
   481                           	line	130
   482  005B                     _SPD:
   483  005B                            ds      1
   484                           
   485                           psect	dataBANK0
   486                           	file	"U:\_218c Teams\BringItOn\218C Project - World Cup\COACH CODE WE ARE USING\MasterC
                                 oach\MasterCoach\CoachMasterCode.c"
   487                           	line	126
   488  005C                     _TAGINFO:
   489  005C                            ds      1
   490                           
   491                           psect	dataBANK0
   492                           	file	"U:\_218c Teams\BringItOn\218C Project - World Cup\COACH CODE WE ARE USING\MasterC
                                 oach\MasterCoach\CoachMasterCode.c"
   493                           	line	93
   494  005D                     _X_API:
   495  005D                            ds      1
   496                           
   497                           psect	dataBANK0
   498                           	file	"U:\_218c Teams\BringItOn\218C Project - World Cup\COACH CODE WE ARE USING\MasterC
                                 oach\MasterCoach\CoachMasterCode.c"
   499                           	line	96
   500  005E                     _X_AddrLSB:
   501  005E                            ds      1
   502                           
   503                           psect	dataBANK0
   504                           	file	"U:\_218c Teams\BringItOn\218C Project - World Cup\COACH CODE WE ARE USING\MasterC
                                 oach\MasterCoach\CoachMasterCode.c"
   505                           	line	95
   506  005F                     _X_AddrMSB:
   507  005F                            ds      1
   508                           
   509                           psect	dataBANK0
   510                           	file	"U:\_218c Teams\BringItOn\218C Project - World Cup\COACH CODE WE ARE USING\MasterC
                                 oach\MasterCoach\CoachMasterCode.c"
   511                           	line	98
   512  0060                     _X_CMD:
   513  0060                            ds      1
   514                           
   515                           psect	dataBANK0
   516                           	file	"U:\_218c Teams\BringItOn\218C Project - World Cup\COACH CODE WE ARE USING\MasterC
                                 oach\MasterCoach\CoachMasterCode.c"
   517                           	line	94
   518  0061                     _X_FID:
   519  0061                            ds      1
   520                           
   521                           psect	dataBANK0
   522                           	file	"U:\_218c Teams\BringItOn\218C Project - World Cup\COACH CODE WE ARE USING\MasterC
                                 oach\MasterCoach\CoachMasterCode.c"
   523                           	line	99
   524  0062                     _X_RF1:
   525  0062                            ds      1
   526                           
   527                           psect	dataBANK0
   528                           	file	"U:\_218c Teams\BringItOn\218C Project - World Cup\COACH CODE WE ARE USING\MasterC
                                 oach\MasterCoach\CoachMasterCode.c"
   529                           	line	100
   530  0063                     _X_RF2:
   531  0063                            ds      1
   532                           
   533                           psect	dataBANK0
   534                           	file	"U:\_218c Teams\BringItOn\218C Project - World Cup\COACH CODE WE ARE USING\MasterC
                                 oach\MasterCoach\CoachMasterCode.c"
   535                           	line	101
   536  0064                     _X_RF3:
   537  0064                            ds      1
   538                           
   539                           psect	dataBANK0
   540                           	file	"U:\_218c Teams\BringItOn\218C Project - World Cup\COACH CODE WE ARE USING\MasterC
                                 oach\MasterCoach\CoachMasterCode.c"
   541                           	line	102
   542  0065                     _X_RF4:
   543  0065                            ds      1
   544                           
   545                           psect	dataBANK0
   546                           	file	"U:\_218c Teams\BringItOn\218C Project - World Cup\COACH CODE WE ARE USING\MasterC
                                 oach\MasterCoach\CoachMasterCode.c"
   547                           	line	103
   548  0066                     _X_RF5:
   549  0066                            ds      1
   550                           
   551                           psect	dataBANK0
   552                           	file	"U:\_218c Teams\BringItOn\218C Project - World Cup\COACH CODE WE ARE USING\MasterC
                                 oach\MasterCoach\CoachMasterCode.c"
   553                           	line	80
   554  0067                     _X_Transition:
   555  0067                            ds      1
   556                           
   557                           psect clrtext,class=CODE,delta=2
   558                           global clear_ram
   559                           ;	Called with FSR containing the base address, and
   560                           ;	W with the last address+1
   561  0567                     clear_ram:
   562  0567  0064               	clrwdt			;clear the watchdog before getting into this loop
   563  0568                     clrloop:
   564  0568  0180               	clrf	indf		;clear RAM location pointed to by FSR
   565  0569  0A84               	incf	fsr,f		;increment pointer
   566  056A  0604               	xorwf	fsr,w		;XOR with final address
   567  056B  1903               	btfsc	status,2	;have we reached the end yet?
   568  056C  3400               	retlw	0		;all done for this memory range, return
   569  056D  0604               	xorwf	fsr,w		;XOR again to restore value
   570  056E  2D68               	goto	clrloop		;do the next byte
   571                           
   572                           ; Clear objects allocated to COMMON
   573                           psect cinit,class=CODE,delta=2
   574  04CB  3077               	movlw	low(__pbssCOMMON)
   575  04CC  0084               	movwf	fsr
   576  04CD  307D               	movlw	low((__pbssCOMMON)+06h)
   577  04CE  118A  2567  118A   	fcall	clear_ram
   578                           ; Clear objects allocated to BANK0
   579                           psect cinit,class=CODE,delta=2
   580  04D1  1383               	bcf	status, 7	;select IRP bank0
   581  04D2  3020               	movlw	low(__pbssBANK0)
   582  04D3  0084               	movwf	fsr
   583  04D4  3054               	movlw	low((__pbssBANK0)+034h)
   584  04D5  118A  2567  118A   	fcall	clear_ram
   585                           global btemp
   586                           psect inittext,class=CODE,delta=2
   587                           global init_fetch,btemp
   588                           ;	Called with low address in FSR and high address in W
   589  053E                     init_fetch:
   590  053E  087E               	movf btemp,w
   591  053F  008A               	movwf pclath
   592  0540  087F               	movf btemp+1,w
   593  0541  0082               	movwf pc
   594                           global init_ram
   595                           ;Called with:
   596                           ;	high address of idata address in btemp 
   597                           ;	low address of idata address in btemp+1 
   598                           ;	low address of data in FSR
   599                           ;	high address + 1 of data in btemp-1
   600  0542                     init_ram:
   601  0542  118A  253E  118A   	fcall init_fetch
   602  0545  0080               	movwf indf,f
   603  0546  0A84               	incf fsr,f
   604  0547  0804               	movf fsr,w
   605  0548  067D               	xorwf btemp-1,w
   606  0549  1903               	btfsc status,2
   607  054A  3400               	retlw 0
   608  054B  0AFF               	incf btemp+1,f
   609  054C  1903               	btfsc status,2
   610  054D  0AFE               	incf btemp,f
   611  054E  2D42               	goto init_ram
   612                           ; Initialize objects allocated to BANK0
   613                           psect cinit,class=CODE,delta=2
   614                           global init_ram, __pidataBANK0
   615  04D8  3068               	movlw low(__pdataBANK0+20)
   616  04D9  00FD               	movwf btemp-1,f
   617  04DA  3005               	movlw high(__pidataBANK0)
   618  04DB  00FE               	movwf btemp,f
   619  04DC  3018               	movlw low(__pidataBANK0)
   620  04DD  00FF               	movwf btemp+1,f
   621  04DE  3054               	movlw low(__pdataBANK0)
   622  04DF  0084               	movwf fsr,f
   623  04E0  118A  2542  118A   	fcall init_ram
   624                           ; Initialize objects allocated to COMMON
   625                           	global __pidataCOMMON
   626                           psect cinit,class=CODE,delta=2
   627  04E3  118A  2577  118A   	fcall	__pidataCOMMON+0		;fetch initializer
   628  04E6  00FD               	movwf	__pdataCOMMON+0&07fh		
   629                           psect cinit,class=CODE,delta=2
   630                           global end_of_initialization
   631                           
   632                           ;End of C runtime variable initialization code
   633                           
   634  04E7                     end_of_initialization:
   635  04E7  0183               clrf status
   636  04E8  118A  2813         ljmp _main	;jump to C main() function
   637                           psect	cstackCOMMON,class=COMMON,space=1
   638                           global __pcstackCOMMON
   639  0070                     __pcstackCOMMON:
   640                           	global	?_InitTimers
   641  0070                     ?_InitTimers:	; 0 bytes @ 0x0
   642                           	global	?_InitPorts
   643  0070                     ?_InitPorts:	; 0 bytes @ 0x0
   644                           	global	?_InitComm
   645  0070                     ?_InitComm:	; 0 bytes @ 0x0
   646                           	global	?_InitInterrupts
   647  0070                     ?_InitInterrupts:	; 0 bytes @ 0x0
   648                           	global	?_XBee_State
   649  0070                     ?_XBee_State:	; 0 bytes @ 0x0
   650                           	global	?_Process_Status
   651  0070                     ?_Process_Status:	; 0 bytes @ 0x0
   652                           	global	?_Process_SPI
   653  0070                     ?_Process_SPI:	; 0 bytes @ 0x0
   654                           	global	??_Process_SPI
   655  0070                     ??_Process_SPI:	; 0 bytes @ 0x0
   656                           	global	?_main
   657  0070                     ?_main:	; 0 bytes @ 0x0
   658                           	global	?_ISR
   659  0070                     ?_ISR:	; 0 bytes @ 0x0
   660                           	global	?i1_XBee_State
   661  0070                     ?i1_XBee_State:	; 0 bytes @ 0x0
   662                           	global	??i1_XBee_State
   663  0070                     ??i1_XBee_State:	; 0 bytes @ 0x0
   664                           	global	?_Encode_Message
   665  0070                     ?_Encode_Message:	; 1 bytes @ 0x0
   666                           	global	?_CalculateChecksum
   667  0070                     ?_CalculateChecksum:	; 1 bytes @ 0x0
   668  0070                     	ds	1
   669                           	global	i1XBee_State@x
   670  0071                     i1XBee_State@x:	; 1 bytes @ 0x1
   671  0071                     	ds	1
   672                           	global	??_ISR
   673  0072                     ??_ISR:	; 0 bytes @ 0x2
   674  0072                     	ds	5
   675                           psect	cstackBANK0,class=BANK0,space=1
   676                           global __pcstackBANK0
   677  0068                     __pcstackBANK0:
   678                           	global	??_InitTimers
   679  0068                     ??_InitTimers:	; 0 bytes @ 0x0
   680                           	global	??_InitPorts
   681  0068                     ??_InitPorts:	; 0 bytes @ 0x0
   682                           	global	??_InitComm
   683  0068                     ??_InitComm:	; 0 bytes @ 0x0
   684                           	global	??_InitInterrupts
   685  0068                     ??_InitInterrupts:	; 0 bytes @ 0x0
   686                           	global	??_Encode_Message
   687  0068                     ??_Encode_Message:	; 0 bytes @ 0x0
   688                           	global	??_CalculateChecksum
   689  0068                     ??_CalculateChecksum:	; 0 bytes @ 0x0
   690                           	global	??_XBee_State
   691  0068                     ??_XBee_State:	; 0 bytes @ 0x0
   692                           	global	??_Process_Status
   693  0068                     ??_Process_Status:	; 0 bytes @ 0x0
   694  0068                     	ds	1
   695                           	global	Process_Status@status
   696  0069                     Process_Status@status:	; 1 bytes @ 0x1
   697                           	global	XBee_State@x
   698  0069                     XBee_State@x:	; 1 bytes @ 0x1
   699                           	global	Encode_Message@Type
   700  0069                     Encode_Message@Type:	; 1 bytes @ 0x1
   701  0069                     	ds	1
   702                           	global	Encode_Message@Length
   703  006A                     Encode_Message@Length:	; 1 bytes @ 0x2
   704  006A                     	ds	3
   705                           	global	CalculateChecksum@checksum
   706  006D                     CalculateChecksum@checksum:	; 1 bytes @ 0x5
   707  006D                     	ds	1
   708                           	global	??_main
   709  006E                     ??_main:	; 0 bytes @ 0x6
   710  006E                     	ds	1
   711 ;;Data sizes: Strings 0, constant 0, data 21, bss 58, persistent 0 stack 0
   712 ;;Auto spaces:   Size  Autos    Used
   713 ;; COMMON          14      7      14
   714 ;; BANK0           80      7      79
   715 ;; BANK1           80      0       0
   716 ;; BANK2           80      0       0
   717                           
   718 ;;
   719 ;; Pointer list with targets:
   720                           
   721                           
   722                           
   723 ;;
   724 ;; Critical Paths under _main in COMMON
   725 ;;
   726 ;;   None.
   727 ;;
   728 ;; Critical Paths under _ISR in COMMON
   729 ;;
   730 ;;   _ISR->i1_XBee_State
   731 ;;
   732 ;; Critical Paths under _main in BANK0
   733 ;;
   734 ;;   _main->_CalculateChecksum
   735 ;;
   736 ;; Critical Paths under _ISR in BANK0
   737 ;;
   738 ;;   None.
   739 ;;
   740 ;; Critical Paths under _main in BANK1
   741 ;;
   742 ;;   None.
   743 ;;
   744 ;; Critical Paths under _ISR in BANK1
   745 ;;
   746 ;;   None.
   747 ;;
   748 ;; Critical Paths under _main in BANK2
   749 ;;
   750 ;;   None.
   751 ;;
   752 ;; Critical Paths under _ISR in BANK2
   753 ;;
   754 ;;   None.
   755                           
   756 ;;
   757 ;;Main: autosize = 0, tempsize = 1, incstack = 0, save=0
   758 ;;
   759                           
   760 ;;
   761 ;;Call Graph Tables:
   762 ;;
   763 ;; ---------------------------------------------------------------------------------
   764 ;; (Depth) Function   	        Calls       Base Space   Used Autos Params    Refs
   765 ;; ---------------------------------------------------------------------------------
   766 ;; (0) _main                                                 1     1      0     126
   767 ;;                                              6 BANK0      1     1      0
   768 ;;                         _InitTimers
   769 ;;                          _InitPorts
   770 ;;                           _InitComm
   771 ;;                     _InitInterrupts
   772 ;;                     _Encode_Message
   773 ;;                  _CalculateChecksum
   774 ;;                         _XBee_State
   775 ;;                     _Process_Status
   776 ;; ---------------------------------------------------------------------------------
   777 ;; (1) _Process_Status                                       2     2      0      22
   778 ;;                                              0 BANK0      2     2      0
   779 ;; ---------------------------------------------------------------------------------
   780 ;; (1) _XBee_State                                           2     2      0      22
   781 ;;                                              0 BANK0      2     2      0
   782 ;; ---------------------------------------------------------------------------------
   783 ;; (1) _CalculateChecksum                                    6     6      0      29
   784 ;;                                              0 BANK0      6     6      0
   785 ;; ---------------------------------------------------------------------------------
   786 ;; (1) _Encode_Message                                       3     3      0      53
   787 ;;                                              0 BANK0      3     3      0
   788 ;; ---------------------------------------------------------------------------------
   789 ;; (1) _InitInterrupts                                       0     0      0       0
   790 ;; ---------------------------------------------------------------------------------
   791 ;; (1) _InitComm                                             1     1      0       0
   792 ;;                                              0 BANK0      1     1      0
   793 ;; ---------------------------------------------------------------------------------
   794 ;; (1) _InitPorts                                            0     0      0       0
   795 ;; ---------------------------------------------------------------------------------
   796 ;; (1) _InitTimers                                           0     0      0       0
   797 ;; ---------------------------------------------------------------------------------
   798 ;; Estimated maximum stack depth 1
   799 ;; ---------------------------------------------------------------------------------
   800 ;; (Depth) Function   	        Calls       Base Space   Used Autos Params    Refs
   801 ;; ---------------------------------------------------------------------------------
   802 ;; (2) _ISR                                                  5     5      0      73
   803 ;;                                              2 COMMON     5     5      0
   804 ;;                        _Process_SPI
   805 ;;                       i1_XBee_State
   806 ;; ---------------------------------------------------------------------------------
   807 ;; (3) i1_XBee_State                                         2     2      0      73
   808 ;;                                              0 COMMON     2     2      0
   809 ;; ---------------------------------------------------------------------------------
   810 ;; (3) _Process_SPI                                          1     1      0       0
   811 ;;                                              0 COMMON     1     1      0
   812 ;; ---------------------------------------------------------------------------------
   813 ;; Estimated maximum stack depth 3
   814 ;; ---------------------------------------------------------------------------------
   815                           
   816 ;; Call Graph Graphs:
   817                           
   818 ;; _main (ROOT)
   819 ;;   _InitTimers
   820 ;;   _InitPorts
   821 ;;   _InitComm
   822 ;;   _InitInterrupts
   823 ;;   _Encode_Message
   824 ;;   _CalculateChecksum
   825 ;;   _XBee_State
   826 ;;   _Process_Status
   827 ;;
   828 ;; _ISR (ROOT)
   829 ;;   _Process_SPI
   830 ;;   i1_XBee_State
   831 ;;
   832                           
   833 ;; Address spaces:
   834                           
   835 ;;Name               Size   Autos  Total    Cost      Usage
   836 ;;SFR3                 0      0       0       4        0.0%
   837 ;;BITSFR3              0      0       0       4        0.0%
   838 ;;BANK2               50      0       0       7        0.0%
   839 ;;BITBANK2            50      0       0       6        0.0%
   840 ;;SFR2                 0      0       0       5        0.0%
   841 ;;BITSFR2              0      0       0       5        0.0%
   842 ;;SFR1                 0      0       0       2        0.0%
   843 ;;BITSFR1              0      0       0       2        0.0%
   844 ;;BANK1               50      0       0       5        0.0%
   845 ;;BITBANK1            50      0       0       4        0.0%
   846 ;;CODE                 0      0       0       0        0.0%
   847 ;;DATA                 0      0      62      10        0.0%
   848 ;;ABS                  0      0      5D       8        0.0%
   849 ;;NULL                 0      0       0       0        0.0%
   850 ;;STACK                0      0       5       2        0.0%
   851 ;;BANK0               50      7      4F       3       98.8%
   852 ;;BITBANK0            50      0       0       9        0.0%
   853 ;;SFR0                 0      0       0       1        0.0%
   854 ;;BITSFR0              0      0       0       1        0.0%
   855 ;;COMMON               E      7       E       1      100.0%
   856 ;;BITCOMMON            E      0       0       0        0.0%
   857 ;;EEDATA             100      0       0       0        0.0%
   858                           
   859                           	global	_main
   860                           psect	maintext,global,class=CODE,delta=2
   861                           global __pmaintext
   862  0013                     __pmaintext:
   863                           
   864 ;; *************** function _main *****************
   865 ;; Defined at:
   866 ;;		line 167 in file "U:\_218c Teams\BringItOn\218C Project - World Cup\COACH CODE WE ARE USING\MasterCoach\MasterCoach\
       CoachMasterCode.c"
   867 ;; Parameters:    Size  Location     Type
   868 ;;		None
   869 ;; Auto vars:     Size  Location     Type
   870 ;;		None
   871 ;; Return value:  Size  Location     Type
   872 ;;		None               void
   873 ;; Registers used:
   874 ;;		wreg, fsr0l, fsr0h, status,2, status,0, pclath, cstack
   875 ;; Tracked objects:
   876 ;;		On entry : 17F/0
   877 ;;		On exit  : 0/0
   878 ;;		Unchanged: 0/0
   879 ;; Data sizes:     COMMON   BANK0   BANK1   BANK2
   880 ;;      Params:         0       0       0       0
   881 ;;      Locals:         0       0       0       0
   882 ;;      Temps:          0       1       0       0
   883 ;;      Totals:         0       1       0       0
   884 ;;Total ram usage:        1 bytes
   885 ;; Hardware stack levels required when called:    3
   886 ;; This function calls:
   887 ;;		_InitTimers
   888 ;;		_InitPorts
   889 ;;		_InitComm
   890 ;;		_InitInterrupts
   891 ;;		_Encode_Message
   892 ;;		_CalculateChecksum
   893 ;;		_XBee_State
   894 ;;		_Process_Status
   895 ;; This function is called by:
   896 ;;		Startup code after reset
   897 ;; This function uses a non-reentrant model
   898 ;;
   899                           psect	maintext
   900                           	file	"U:\_218c Teams\BringItOn\218C Project - World Cup\COACH CODE WE ARE USING\MasterC
                                 oach\MasterCoach\CoachMasterCode.c"
   901                           	line	167
   902                           	global	__size_of_main
   903  023C                     	__size_of_main	equ	__end_of_main-_main
   904                           	
   905  0013                     _main:	
   906                           	opt	stack 5
   907                           ; Regs used in _main: [wreg-fsr0h+status,2+status,0+pclath+cstack]
   908                           	line	169
   909                           	
   910  0013                     l4474:	
   911                           ;CoachMasterCode.c: 169: InitTimers();
   912  0013  118A  255E  118A   	fcall	_InitTimers
   913                           	line	170
   914                           ;CoachMasterCode.c: 170: InitPorts();
   915  0016  118A  252C  118A   	fcall	_InitPorts
   916                           	line	171
   917                           ;CoachMasterCode.c: 171: InitComm();
   918  0019  118A  242C  118A   	fcall	_InitComm
   919                           	line	172
   920                           ;CoachMasterCode.c: 172: InitInterrupts();
   921  001C  118A  254F  118A   	fcall	_InitInterrupts
   922                           	line	173
   923                           	
   924  001F                     l4476:	
   925                           ;CoachMasterCode.c: 173: SSPBUF = BytesOut[i];
   926  001F  1283               	bcf	status, 5	;RP0=0, select bank0
   927  0020  1303               	bcf	status, 6	;RP1=0, select bank0
   928  0021  0853               	movf	(_i),w
   929  0022  3E28               	addlw	_BytesOut&0ffh
   930  0023  0084               	movwf	fsr0
   931  0024  1383               	bcf	status, 7	;select IRP bank0
   932  0025  0800               	movf	indf,w
   933  0026  0093               	movwf	(19)
   934  0027  2828               	goto	l4478
   935                           	line	175
   936                           ;CoachMasterCode.c: 175: while(1)
   937                           	
   938  0028                     l1023:	
   939                           	line	182
   940                           	
   941  0028                     l4478:	
   942                           ;CoachMasterCode.c: 176: {
   943                           ;CoachMasterCode.c: 182: if(CommActive)
   944  0028  0837               	movf	(_CommActive),w
   945  0029  1D03               	skipz
   946  002A  282C               	goto	u3030
   947  002B  2828               	goto	l4478
   948  002C                     u3030:
   949                           	line	185
   950                           	
   951  002C                     l4480:	
   952                           ;CoachMasterCode.c: 183: {
   953                           ;CoachMasterCode.c: 185: if( X_Transition!=0 )
   954  002C  0867               	movf	(_X_Transition),w
   955  002D  1D03               	skipz
   956  002E  2830               	goto	u3040
   957  002F  295E               	goto	l4580
   958  0030                     u3040:
   959                           	line	187
   960                           	
   961  0030                     l4482:	
   962                           ;CoachMasterCode.c: 186: {
   963                           ;CoachMasterCode.c: 187: X_Transition = 0;
   964  0030  01E7               	clrf	(_X_Transition)
   965                           	line	189
   966                           ;CoachMasterCode.c: 189: switch( CurrentX_State )
   967  0031  2951               	goto	l4578
   968                           	line	191
   969                           ;CoachMasterCode.c: 190: {
   970                           ;CoachMasterCode.c: 191: case X_Idle_State :
   971                           	
   972  0032                     l1027:	
   973                           	line	193
   974                           	
   975  0032                     l4484:	
   976                           ;CoachMasterCode.c: 192: {
   977                           ;CoachMasterCode.c: 193: SEND = 1;
   978  0032  01CB               	clrf	(_SEND)
   979  0033  1403               	bsf	status,0
   980  0034  0DCB               	rlf	(_SEND),f
   981                           	line	194
   982                           ;CoachMasterCode.c: 194: NextX_State = X_StartDelim_State;
   983  0035  01BD               	clrf	(_NextX_State)
   984  0036  1403               	bsf	status,0
   985  0037  0DBD               	rlf	(_NextX_State),f
   986                           	line	195
   987                           	
   988  0038                     l4486:	
   989                           ;CoachMasterCode.c: 195: NextByteOut = 0x7E;
   990  0038  307E               	movlw	(07Eh)
   991  0039  00EE               	movwf	(??_main+0)+0
   992  003A  086E               	movf	(??_main+0)+0,w
   993  003B  00D7               	movwf	(_NextByteOut)
   994                           	line	197
   995                           	
   996  003C                     l4488:	
   997                           ;CoachMasterCode.c: 197: MessageCounter = Encode_Message(CurrentType);
   998  003C  0855               	movf	(_CurrentType),w
   999  003D  118A  230C  118A   	fcall	_Encode_Message
  1000  0040  1283               	bcf	status, 5	;RP0=0, select bank0
  1001  0041  1303               	bcf	status, 6	;RP1=0, select bank0
  1002  0042  00EE               	movwf	(??_main+0)+0
  1003  0043  086E               	movf	(??_main+0)+0,w
  1004  0044  00BB               	movwf	(_MessageCounter)
  1005                           	line	198
  1006                           	
  1007  0045                     l4490:	
  1008                           ;CoachMasterCode.c: 198: X_LengthLSB = MessageCounter + 5;
  1009  0045  083B               	movf	(_MessageCounter),w
  1010  0046  3E05               	addlw	05h
  1011  0047  00EE               	movwf	(??_main+0)+0
  1012  0048  086E               	movf	(??_main+0)+0,w
  1013  0049  00D0               	movwf	(_X_LengthLSB)
  1014                           	line	200
  1015                           	
  1016  004A                     l4492:	
  1017                           ;CoachMasterCode.c: 200: X_CMD = TXData[0];
  1018  004A  0830               	movf	(_TXData),w
  1019  004B  00EE               	movwf	(??_main+0)+0
  1020  004C  086E               	movf	(??_main+0)+0,w
  1021  004D  00E0               	movwf	(_X_CMD)
  1022                           	line	201
  1023                           	
  1024  004E                     l4494:	
  1025                           ;CoachMasterCode.c: 201: X_RF1 = TXData[1];
  1026  004E  0831               	movf	0+(_TXData)+01h,w
  1027  004F  00EE               	movwf	(??_main+0)+0
  1028  0050  086E               	movf	(??_main+0)+0,w
  1029  0051  00E2               	movwf	(_X_RF1)
  1030                           	line	202
  1031                           	
  1032  0052                     l4496:	
  1033                           ;CoachMasterCode.c: 202: X_RF2 = TXData[2];
  1034  0052  0832               	movf	0+(_TXData)+02h,w
  1035  0053  00EE               	movwf	(??_main+0)+0
  1036  0054  086E               	movf	(??_main+0)+0,w
  1037  0055  00E3               	movwf	(_X_RF2)
  1038                           	line	203
  1039                           	
  1040  0056                     l4498:	
  1041                           ;CoachMasterCode.c: 203: X_RF3 = TXData[3];
  1042  0056  0833               	movf	0+(_TXData)+03h,w
  1043  0057  00EE               	movwf	(??_main+0)+0
  1044  0058  086E               	movf	(??_main+0)+0,w
  1045  0059  00E4               	movwf	(_X_RF3)
  1046                           	line	204
  1047                           	
  1048  005A                     l4500:	
  1049                           ;CoachMasterCode.c: 204: X_RF4 = TXData[4];
  1050  005A  0834               	movf	0+(_TXData)+04h,w
  1051  005B  00EE               	movwf	(??_main+0)+0
  1052  005C  086E               	movf	(??_main+0)+0,w
  1053  005D  00E5               	movwf	(_X_RF4)
  1054                           	line	205
  1055                           	
  1056  005E                     l4502:	
  1057                           ;CoachMasterCode.c: 205: X_RF5 = TXData[5];
  1058  005E  0835               	movf	0+(_TXData)+05h,w
  1059  005F  00EE               	movwf	(??_main+0)+0
  1060  0060  086E               	movf	(??_main+0)+0,w
  1061  0061  00E6               	movwf	(_X_RF5)
  1062                           	line	208
  1063                           ;CoachMasterCode.c: 207: }
  1064                           ;CoachMasterCode.c: 208: break;
  1065  0062  295E               	goto	l4580
  1066                           	line	210
  1067                           ;CoachMasterCode.c: 210: case X_StartDelim_State :
  1068                           	
  1069  0063                     l1029:	
  1070                           	line	213
  1071                           	
  1072  0063                     l4504:	
  1073                           ;CoachMasterCode.c: 211: {
  1074                           ;CoachMasterCode.c: 213: NextX_State = X_LengthMSB_State;
  1075  0063  3002               	movlw	(02h)
  1076  0064  00EE               	movwf	(??_main+0)+0
  1077  0065  086E               	movf	(??_main+0)+0,w
  1078  0066  00BD               	movwf	(_NextX_State)
  1079                           	line	214
  1080                           ;CoachMasterCode.c: 214: NextByteOut = X_LengthMSB ;
  1081  0067  0851               	movf	(_X_LengthMSB),w
  1082  0068  00EE               	movwf	(??_main+0)+0
  1083  0069  086E               	movf	(??_main+0)+0,w
  1084  006A  00D7               	movwf	(_NextByteOut)
  1085                           	line	216
  1086                           ;CoachMasterCode.c: 215: }
  1087                           ;CoachMasterCode.c: 216: break;
  1088  006B  295E               	goto	l4580
  1089                           	line	218
  1090                           ;CoachMasterCode.c: 218: case X_LengthMSB_State :
  1091                           	
  1092  006C                     l1030:	
  1093                           	line	220
  1094                           	
  1095  006C                     l4506:	
  1096                           ;CoachMasterCode.c: 219: {
  1097                           ;CoachMasterCode.c: 220: NextX_State = X_LengthLSB_State;
  1098  006C  3003               	movlw	(03h)
  1099  006D  00EE               	movwf	(??_main+0)+0
  1100  006E  086E               	movf	(??_main+0)+0,w
  1101  006F  00BD               	movwf	(_NextX_State)
  1102                           	line	221
  1103                           ;CoachMasterCode.c: 221: NextByteOut = X_LengthLSB;
  1104  0070  0850               	movf	(_X_LengthLSB),w
  1105  0071  00EE               	movwf	(??_main+0)+0
  1106  0072  086E               	movf	(??_main+0)+0,w
  1107  0073  00D7               	movwf	(_NextByteOut)
  1108                           	line	223
  1109                           ;CoachMasterCode.c: 222: }
  1110                           ;CoachMasterCode.c: 223: break;
  1111  0074  295E               	goto	l4580
  1112                           	line	225
  1113                           ;CoachMasterCode.c: 225: case X_LengthLSB_State :
  1114                           	
  1115  0075                     l1031:	
  1116                           	line	227
  1117                           	
  1118  0075                     l4508:	
  1119                           ;CoachMasterCode.c: 226: {
  1120                           ;CoachMasterCode.c: 227: NextX_State = X_API_State;
  1121  0075  3004               	movlw	(04h)
  1122  0076  00EE               	movwf	(??_main+0)+0
  1123  0077  086E               	movf	(??_main+0)+0,w
  1124  0078  00BD               	movwf	(_NextX_State)
  1125                           	line	228
  1126                           ;CoachMasterCode.c: 228: NextByteOut = X_API;
  1127  0079  085D               	movf	(_X_API),w
  1128  007A  00EE               	movwf	(??_main+0)+0
  1129  007B  086E               	movf	(??_main+0)+0,w
  1130  007C  00D7               	movwf	(_NextByteOut)
  1131                           	line	230
  1132                           ;CoachMasterCode.c: 229: }
  1133                           ;CoachMasterCode.c: 230: break;
  1134  007D  295E               	goto	l4580
  1135                           	line	232
  1136                           ;CoachMasterCode.c: 232: case X_API_State :
  1137                           	
  1138  007E                     l1032:	
  1139                           	line	234
  1140                           	
  1141  007E                     l4510:	
  1142                           ;CoachMasterCode.c: 233: {
  1143                           ;CoachMasterCode.c: 234: NextX_State = X_FID_State;
  1144  007E  3005               	movlw	(05h)
  1145  007F  00EE               	movwf	(??_main+0)+0
  1146  0080  086E               	movf	(??_main+0)+0,w
  1147  0081  00BD               	movwf	(_NextX_State)
  1148                           	line	235
  1149                           ;CoachMasterCode.c: 235: NextByteOut = X_FID;
  1150  0082  0861               	movf	(_X_FID),w
  1151  0083  00EE               	movwf	(??_main+0)+0
  1152  0084  086E               	movf	(??_main+0)+0,w
  1153  0085  00D7               	movwf	(_NextByteOut)
  1154                           	line	237
  1155                           ;CoachMasterCode.c: 236: }
  1156                           ;CoachMasterCode.c: 237: break;
  1157  0086  295E               	goto	l4580
  1158                           	line	239
  1159                           ;CoachMasterCode.c: 239: case X_FID_State :
  1160                           	
  1161  0087                     l1033:	
  1162                           	line	241
  1163                           	
  1164  0087                     l4512:	
  1165                           ;CoachMasterCode.c: 240: {
  1166                           ;CoachMasterCode.c: 241: NextX_State = X_AddrMSB_State;
  1167  0087  3006               	movlw	(06h)
  1168  0088  00EE               	movwf	(??_main+0)+0
  1169  0089  086E               	movf	(??_main+0)+0,w
  1170  008A  00BD               	movwf	(_NextX_State)
  1171                           	line	242
  1172                           ;CoachMasterCode.c: 242: NextByteOut = X_AddrMSB;
  1173  008B  085F               	movf	(_X_AddrMSB),w
  1174  008C  00EE               	movwf	(??_main+0)+0
  1175  008D  086E               	movf	(??_main+0)+0,w
  1176  008E  00D7               	movwf	(_NextByteOut)
  1177                           	line	244
  1178                           ;CoachMasterCode.c: 243: }
  1179                           ;CoachMasterCode.c: 244: break;
  1180  008F  295E               	goto	l4580
  1181                           	line	246
  1182                           ;CoachMasterCode.c: 246: case X_AddrMSB_State :
  1183                           	
  1184  0090                     l1034:	
  1185                           	line	248
  1186                           	
  1187  0090                     l4514:	
  1188                           ;CoachMasterCode.c: 247: {
  1189                           ;CoachMasterCode.c: 248: NextX_State = X_AddrLSB_State;
  1190  0090  3007               	movlw	(07h)
  1191  0091  00EE               	movwf	(??_main+0)+0
  1192  0092  086E               	movf	(??_main+0)+0,w
  1193  0093  00BD               	movwf	(_NextX_State)
  1194                           	line	249
  1195                           ;CoachMasterCode.c: 249: NextByteOut = X_AddrLSB;
  1196  0094  085E               	movf	(_X_AddrLSB),w
  1197  0095  00EE               	movwf	(??_main+0)+0
  1198  0096  086E               	movf	(??_main+0)+0,w
  1199  0097  00D7               	movwf	(_NextByteOut)
  1200                           	line	251
  1201                           ;CoachMasterCode.c: 250: }
  1202                           ;CoachMasterCode.c: 251: break;
  1203  0098  295E               	goto	l4580
  1204                           	line	253
  1205                           ;CoachMasterCode.c: 253: case X_AddrLSB_State :
  1206                           	
  1207  0099                     l1035:	
  1208                           	line	255
  1209                           	
  1210  0099                     l4516:	
  1211                           ;CoachMasterCode.c: 254: {
  1212                           ;CoachMasterCode.c: 255: NextX_State = X_Options_State;
  1213  0099  3008               	movlw	(08h)
  1214  009A  00EE               	movwf	(??_main+0)+0
  1215  009B  086E               	movf	(??_main+0)+0,w
  1216  009C  00BD               	movwf	(_NextX_State)
  1217                           	line	256
  1218                           ;CoachMasterCode.c: 256: NextByteOut = X_Options;
  1219  009D  0852               	movf	(_X_Options),w
  1220  009E  00EE               	movwf	(??_main+0)+0
  1221  009F  086E               	movf	(??_main+0)+0,w
  1222  00A0  00D7               	movwf	(_NextByteOut)
  1223                           	line	258
  1224                           ;CoachMasterCode.c: 257: }
  1225                           ;CoachMasterCode.c: 258: break;
  1226  00A1  295E               	goto	l4580
  1227                           	line	260
  1228                           ;CoachMasterCode.c: 260: case X_Options_State :
  1229                           	
  1230  00A2                     l1036:	
  1231                           	line	262
  1232                           	
  1233  00A2                     l4518:	
  1234                           ;CoachMasterCode.c: 261: {
  1235                           ;CoachMasterCode.c: 262: NextX_State = X_CMD_State;
  1236  00A2  3009               	movlw	(09h)
  1237  00A3  00EE               	movwf	(??_main+0)+0
  1238  00A4  086E               	movf	(??_main+0)+0,w
  1239  00A5  00BD               	movwf	(_NextX_State)
  1240                           	line	263
  1241                           ;CoachMasterCode.c: 263: NextByteOut = X_CMD;
  1242  00A6  0860               	movf	(_X_CMD),w
  1243  00A7  00EE               	movwf	(??_main+0)+0
  1244  00A8  086E               	movf	(??_main+0)+0,w
  1245  00A9  00D7               	movwf	(_NextByteOut)
  1246                           	line	265
  1247                           ;CoachMasterCode.c: 264: }
  1248                           ;CoachMasterCode.c: 265: break;
  1249  00AA  295E               	goto	l4580
  1250                           	line	267
  1251                           ;CoachMasterCode.c: 267: case X_CMD_State :
  1252                           	
  1253  00AB                     l1037:	
  1254                           	line	269
  1255                           	
  1256  00AB                     l4520:	
  1257                           ;CoachMasterCode.c: 268: {
  1258                           ;CoachMasterCode.c: 269: MessageCounter--;
  1259  00AB  3001               	movlw	low(01h)
  1260  00AC  02BB               	subwf	(_MessageCounter),f
  1261                           	line	270
  1262                           	
  1263  00AD                     l4522:	
  1264                           ;CoachMasterCode.c: 270: if(MessageCounter)
  1265  00AD  083B               	movf	(_MessageCounter),w
  1266  00AE  1D03               	skipz
  1267  00AF  28B1               	goto	u3050
  1268  00B0  28BA               	goto	l4526
  1269  00B1                     u3050:
  1270                           	line	272
  1271                           	
  1272  00B1                     l4524:	
  1273                           ;CoachMasterCode.c: 271: {
  1274                           ;CoachMasterCode.c: 272: NextX_State = X_RF1_State;
  1275  00B1  300A               	movlw	(0Ah)
  1276  00B2  00EE               	movwf	(??_main+0)+0
  1277  00B3  086E               	movf	(??_main+0)+0,w
  1278  00B4  00BD               	movwf	(_NextX_State)
  1279                           	line	273
  1280                           ;CoachMasterCode.c: 273: NextByteOut = X_RF1;
  1281  00B5  0862               	movf	(_X_RF1),w
  1282  00B6  00EE               	movwf	(??_main+0)+0
  1283  00B7  086E               	movf	(??_main+0)+0,w
  1284  00B8  00D7               	movwf	(_NextByteOut)
  1285                           	line	274
  1286                           ;CoachMasterCode.c: 274: }
  1287  00B9  295E               	goto	l4580
  1288                           	line	275
  1289                           	
  1290  00BA                     l1038:	
  1291                           	line	277
  1292                           	
  1293  00BA                     l4526:	
  1294                           ;CoachMasterCode.c: 275: else
  1295                           ;CoachMasterCode.c: 276: {
  1296                           ;CoachMasterCode.c: 277: NextX_State = X_Checksum_State;
  1297  00BA  300F               	movlw	(0Fh)
  1298  00BB  00EE               	movwf	(??_main+0)+0
  1299  00BC  086E               	movf	(??_main+0)+0,w
  1300  00BD  00BD               	movwf	(_NextX_State)
  1301                           	line	278
  1302                           	
  1303  00BE                     l4528:	
  1304                           ;CoachMasterCode.c: 278: NextByteOut = CalculateChecksum();
  1305  00BE  118A  23AA  118A   	fcall	_CalculateChecksum
  1306  00C1  1283               	bcf	status, 5	;RP0=0, select bank0
  1307  00C2  1303               	bcf	status, 6	;RP1=0, select bank0
  1308  00C3  00EE               	movwf	(??_main+0)+0
  1309  00C4  086E               	movf	(??_main+0)+0,w
  1310  00C5  00D7               	movwf	(_NextByteOut)
  1311  00C6  295E               	goto	l4580
  1312                           	line	279
  1313                           	
  1314  00C7                     l1039:	
  1315                           	line	281
  1316                           ;CoachMasterCode.c: 279: }
  1317                           ;CoachMasterCode.c: 280: }
  1318                           ;CoachMasterCode.c: 281: break;
  1319  00C7  295E               	goto	l4580
  1320                           	line	283
  1321                           ;CoachMasterCode.c: 283: case X_RF1_State :
  1322                           	
  1323  00C8                     l1040:	
  1324                           	line	285
  1325                           	
  1326  00C8                     l4530:	
  1327                           ;CoachMasterCode.c: 284: {
  1328                           ;CoachMasterCode.c: 285: MessageCounter--;
  1329  00C8  3001               	movlw	low(01h)
  1330  00C9  02BB               	subwf	(_MessageCounter),f
  1331                           	line	286
  1332                           	
  1333  00CA                     l4532:	
  1334                           ;CoachMasterCode.c: 286: if(MessageCounter)
  1335  00CA  083B               	movf	(_MessageCounter),w
  1336  00CB  1D03               	skipz
  1337  00CC  28CE               	goto	u3060
  1338  00CD  28D7               	goto	l4536
  1339  00CE                     u3060:
  1340                           	line	288
  1341                           	
  1342  00CE                     l4534:	
  1343                           ;CoachMasterCode.c: 287: {
  1344                           ;CoachMasterCode.c: 288: NextX_State = X_RF2_State;
  1345  00CE  300B               	movlw	(0Bh)
  1346  00CF  00EE               	movwf	(??_main+0)+0
  1347  00D0  086E               	movf	(??_main+0)+0,w
  1348  00D1  00BD               	movwf	(_NextX_State)
  1349                           	line	289
  1350                           ;CoachMasterCode.c: 289: NextByteOut = X_RF2;
  1351  00D2  0863               	movf	(_X_RF2),w
  1352  00D3  00EE               	movwf	(??_main+0)+0
  1353  00D4  086E               	movf	(??_main+0)+0,w
  1354  00D5  00D7               	movwf	(_NextByteOut)
  1355                           	line	290
  1356                           ;CoachMasterCode.c: 290: }
  1357  00D6  295E               	goto	l4580
  1358                           	line	291
  1359                           	
  1360  00D7                     l1041:	
  1361                           	line	293
  1362                           	
  1363  00D7                     l4536:	
  1364                           ;CoachMasterCode.c: 291: else
  1365                           ;CoachMasterCode.c: 292: {
  1366                           ;CoachMasterCode.c: 293: NextX_State = X_Checksum_State;
  1367  00D7  300F               	movlw	(0Fh)
  1368  00D8  00EE               	movwf	(??_main+0)+0
  1369  00D9  086E               	movf	(??_main+0)+0,w
  1370  00DA  00BD               	movwf	(_NextX_State)
  1371                           	line	294
  1372                           	
  1373  00DB                     l4538:	
  1374                           ;CoachMasterCode.c: 294: NextByteOut = CalculateChecksum();
  1375  00DB  118A  23AA  118A   	fcall	_CalculateChecksum
  1376  00DE  1283               	bcf	status, 5	;RP0=0, select bank0
  1377  00DF  1303               	bcf	status, 6	;RP1=0, select bank0
  1378  00E0  00EE               	movwf	(??_main+0)+0
  1379  00E1  086E               	movf	(??_main+0)+0,w
  1380  00E2  00D7               	movwf	(_NextByteOut)
  1381  00E3  295E               	goto	l4580
  1382                           	line	295
  1383                           	
  1384  00E4                     l1042:	
  1385                           	line	297
  1386                           ;CoachMasterCode.c: 295: }
  1387                           ;CoachMasterCode.c: 296: }
  1388                           ;CoachMasterCode.c: 297: break;
  1389  00E4  295E               	goto	l4580
  1390                           	line	299
  1391                           ;CoachMasterCode.c: 299: case X_RF2_State :
  1392                           	
  1393  00E5                     l1043:	
  1394                           	line	301
  1395                           	
  1396  00E5                     l4540:	
  1397                           ;CoachMasterCode.c: 300: {
  1398                           ;CoachMasterCode.c: 301: MessageCounter--;
  1399  00E5  3001               	movlw	low(01h)
  1400  00E6  02BB               	subwf	(_MessageCounter),f
  1401                           	line	302
  1402                           	
  1403  00E7                     l4542:	
  1404                           ;CoachMasterCode.c: 302: if(MessageCounter)
  1405  00E7  083B               	movf	(_MessageCounter),w
  1406  00E8  1D03               	skipz
  1407  00E9  28EB               	goto	u3070
  1408  00EA  28F4               	goto	l4546
  1409  00EB                     u3070:
  1410                           	line	304
  1411                           	
  1412  00EB                     l4544:	
  1413                           ;CoachMasterCode.c: 303: {
  1414                           ;CoachMasterCode.c: 304: NextX_State = X_RF3_State;
  1415  00EB  300C               	movlw	(0Ch)
  1416  00EC  00EE               	movwf	(??_main+0)+0
  1417  00ED  086E               	movf	(??_main+0)+0,w
  1418  00EE  00BD               	movwf	(_NextX_State)
  1419                           	line	305
  1420                           ;CoachMasterCode.c: 305: NextByteOut = X_RF3;
  1421  00EF  0864               	movf	(_X_RF3),w
  1422  00F0  00EE               	movwf	(??_main+0)+0
  1423  00F1  086E               	movf	(??_main+0)+0,w
  1424  00F2  00D7               	movwf	(_NextByteOut)
  1425                           	line	306
  1426                           ;CoachMasterCode.c: 306: }
  1427  00F3  295E               	goto	l4580
  1428                           	line	307
  1429                           	
  1430  00F4                     l1044:	
  1431                           	line	309
  1432                           	
  1433  00F4                     l4546:	
  1434                           ;CoachMasterCode.c: 307: else
  1435                           ;CoachMasterCode.c: 308: {
  1436                           ;CoachMasterCode.c: 309: NextX_State = X_Checksum_State;
  1437  00F4  300F               	movlw	(0Fh)
  1438  00F5  00EE               	movwf	(??_main+0)+0
  1439  00F6  086E               	movf	(??_main+0)+0,w
  1440  00F7  00BD               	movwf	(_NextX_State)
  1441                           	line	310
  1442                           	
  1443  00F8                     l4548:	
  1444                           ;CoachMasterCode.c: 310: NextByteOut = CalculateChecksum();
  1445  00F8  118A  23AA  118A   	fcall	_CalculateChecksum
  1446  00FB  1283               	bcf	status, 5	;RP0=0, select bank0
  1447  00FC  1303               	bcf	status, 6	;RP1=0, select bank0
  1448  00FD  00EE               	movwf	(??_main+0)+0
  1449  00FE  086E               	movf	(??_main+0)+0,w
  1450  00FF  00D7               	movwf	(_NextByteOut)
  1451  0100  295E               	goto	l4580
  1452                           	line	311
  1453                           	
  1454  0101                     l1045:	
  1455                           	line	313
  1456                           ;CoachMasterCode.c: 311: }
  1457                           ;CoachMasterCode.c: 312: }
  1458                           ;CoachMasterCode.c: 313: break;
  1459  0101  295E               	goto	l4580
  1460                           	line	315
  1461                           ;CoachMasterCode.c: 315: case X_RF3_State :
  1462                           	
  1463  0102                     l1046:	
  1464                           	line	317
  1465                           	
  1466  0102                     l4550:	
  1467                           ;CoachMasterCode.c: 316: {
  1468                           ;CoachMasterCode.c: 317: MessageCounter--;
  1469  0102  3001               	movlw	low(01h)
  1470  0103  02BB               	subwf	(_MessageCounter),f
  1471                           	line	318
  1472                           	
  1473  0104                     l4552:	
  1474                           ;CoachMasterCode.c: 318: if(MessageCounter)
  1475  0104  083B               	movf	(_MessageCounter),w
  1476  0105  1D03               	skipz
  1477  0106  2908               	goto	u3080
  1478  0107  2911               	goto	l4556
  1479  0108                     u3080:
  1480                           	line	320
  1481                           	
  1482  0108                     l4554:	
  1483                           ;CoachMasterCode.c: 319: {
  1484                           ;CoachMasterCode.c: 320: NextX_State = X_RF4_State;
  1485  0108  300D               	movlw	(0Dh)
  1486  0109  00EE               	movwf	(??_main+0)+0
  1487  010A  086E               	movf	(??_main+0)+0,w
  1488  010B  00BD               	movwf	(_NextX_State)
  1489                           	line	321
  1490                           ;CoachMasterCode.c: 321: NextByteOut = X_RF4;
  1491  010C  0865               	movf	(_X_RF4),w
  1492  010D  00EE               	movwf	(??_main+0)+0
  1493  010E  086E               	movf	(??_main+0)+0,w
  1494  010F  00D7               	movwf	(_NextByteOut)
  1495                           	line	322
  1496                           ;CoachMasterCode.c: 322: }
  1497  0110  295E               	goto	l4580
  1498                           	line	323
  1499                           	
  1500  0111                     l1047:	
  1501                           	line	325
  1502                           	
  1503  0111                     l4556:	
  1504                           ;CoachMasterCode.c: 323: else
  1505                           ;CoachMasterCode.c: 324: {
  1506                           ;CoachMasterCode.c: 325: NextX_State = X_Checksum_State;
  1507  0111  300F               	movlw	(0Fh)
  1508  0112  00EE               	movwf	(??_main+0)+0
  1509  0113  086E               	movf	(??_main+0)+0,w
  1510  0114  00BD               	movwf	(_NextX_State)
  1511                           	line	326
  1512                           	
  1513  0115                     l4558:	
  1514                           ;CoachMasterCode.c: 326: NextByteOut = CalculateChecksum();
  1515  0115  118A  23AA  118A   	fcall	_CalculateChecksum
  1516  0118  1283               	bcf	status, 5	;RP0=0, select bank0
  1517  0119  1303               	bcf	status, 6	;RP1=0, select bank0
  1518  011A  00EE               	movwf	(??_main+0)+0
  1519  011B  086E               	movf	(??_main+0)+0,w
  1520  011C  00D7               	movwf	(_NextByteOut)
  1521  011D  295E               	goto	l4580
  1522                           	line	327
  1523                           	
  1524  011E                     l1048:	
  1525                           	line	329
  1526                           ;CoachMasterCode.c: 327: }
  1527                           ;CoachMasterCode.c: 328: }
  1528                           ;CoachMasterCode.c: 329: break;
  1529  011E  295E               	goto	l4580
  1530                           	line	331
  1531                           ;CoachMasterCode.c: 331: case X_RF4_State :
  1532                           	
  1533  011F                     l1049:	
  1534                           	line	333
  1535                           	
  1536  011F                     l4560:	
  1537                           ;CoachMasterCode.c: 332: {
  1538                           ;CoachMasterCode.c: 333: MessageCounter--;
  1539  011F  3001               	movlw	low(01h)
  1540  0120  02BB               	subwf	(_MessageCounter),f
  1541                           	line	334
  1542                           	
  1543  0121                     l4562:	
  1544                           ;CoachMasterCode.c: 334: if(MessageCounter)
  1545  0121  083B               	movf	(_MessageCounter),w
  1546  0122  1D03               	skipz
  1547  0123  2925               	goto	u3090
  1548  0124  292E               	goto	l4566
  1549  0125                     u3090:
  1550                           	line	336
  1551                           	
  1552  0125                     l4564:	
  1553                           ;CoachMasterCode.c: 335: {
  1554                           ;CoachMasterCode.c: 336: NextX_State = X_RF5_State;
  1555  0125  300E               	movlw	(0Eh)
  1556  0126  00EE               	movwf	(??_main+0)+0
  1557  0127  086E               	movf	(??_main+0)+0,w
  1558  0128  00BD               	movwf	(_NextX_State)
  1559                           	line	337
  1560                           ;CoachMasterCode.c: 337: NextByteOut = X_RF5;
  1561  0129  0866               	movf	(_X_RF5),w
  1562  012A  00EE               	movwf	(??_main+0)+0
  1563  012B  086E               	movf	(??_main+0)+0,w
  1564  012C  00D7               	movwf	(_NextByteOut)
  1565                           	line	338
  1566                           ;CoachMasterCode.c: 338: }
  1567  012D  295E               	goto	l4580
  1568                           	line	339
  1569                           	
  1570  012E                     l1050:	
  1571                           	line	341
  1572                           	
  1573  012E                     l4566:	
  1574                           ;CoachMasterCode.c: 339: else
  1575                           ;CoachMasterCode.c: 340: {
  1576                           ;CoachMasterCode.c: 341: NextX_State = X_Checksum_State;
  1577  012E  300F               	movlw	(0Fh)
  1578  012F  00EE               	movwf	(??_main+0)+0
  1579  0130  086E               	movf	(??_main+0)+0,w
  1580  0131  00BD               	movwf	(_NextX_State)
  1581                           	line	342
  1582                           	
  1583  0132                     l4568:	
  1584                           ;CoachMasterCode.c: 342: NextByteOut = CalculateChecksum();
  1585  0132  118A  23AA  118A   	fcall	_CalculateChecksum
  1586  0135  1283               	bcf	status, 5	;RP0=0, select bank0
  1587  0136  1303               	bcf	status, 6	;RP1=0, select bank0
  1588  0137  00EE               	movwf	(??_main+0)+0
  1589  0138  086E               	movf	(??_main+0)+0,w
  1590  0139  00D7               	movwf	(_NextByteOut)
  1591  013A  295E               	goto	l4580
  1592                           	line	343
  1593                           	
  1594  013B                     l1051:	
  1595                           	line	345
  1596                           ;CoachMasterCode.c: 343: }
  1597                           ;CoachMasterCode.c: 344: }
  1598                           ;CoachMasterCode.c: 345: break;
  1599  013B  295E               	goto	l4580
  1600                           	line	347
  1601                           ;CoachMasterCode.c: 347: case X_RF5_State :
  1602                           	
  1603  013C                     l1052:	
  1604                           	line	349
  1605                           	
  1606  013C                     l4570:	
  1607                           ;CoachMasterCode.c: 348: {
  1608                           ;CoachMasterCode.c: 349: NextX_State = X_Checksum_State;
  1609  013C  300F               	movlw	(0Fh)
  1610  013D  00EE               	movwf	(??_main+0)+0
  1611  013E  086E               	movf	(??_main+0)+0,w
  1612  013F  00BD               	movwf	(_NextX_State)
  1613                           	line	350
  1614                           	
  1615  0140                     l4572:	
  1616                           ;CoachMasterCode.c: 350: NextByteOut = CalculateChecksum();
  1617  0140  118A  23AA  118A   	fcall	_CalculateChecksum
  1618  0143  1283               	bcf	status, 5	;RP0=0, select bank0
  1619  0144  1303               	bcf	status, 6	;RP1=0, select bank0
  1620  0145  00EE               	movwf	(??_main+0)+0
  1621  0146  086E               	movf	(??_main+0)+0,w
  1622  0147  00D7               	movwf	(_NextByteOut)
  1623                           	line	352
  1624                           ;CoachMasterCode.c: 351: }
  1625                           ;CoachMasterCode.c: 352: break;
  1626  0148  295E               	goto	l4580
  1627                           	line	354
  1628                           ;CoachMasterCode.c: 354: case X_Checksum_State :
  1629                           	
  1630  0149                     l1053:	
  1631                           	line	356
  1632                           ;CoachMasterCode.c: 355: {
  1633                           ;CoachMasterCode.c: 356: SEND = 0;
  1634  0149  01CB               	clrf	(_SEND)
  1635                           	line	357
  1636                           ;CoachMasterCode.c: 357: NextX_State = X_Idle_State;
  1637  014A  01BD               	clrf	(_NextX_State)
  1638                           	line	358
  1639                           	
  1640  014B                     l4574:	
  1641                           ;CoachMasterCode.c: 358: NextByteOut = 0x7E;
  1642  014B  307E               	movlw	(07Eh)
  1643  014C  00EE               	movwf	(??_main+0)+0
  1644  014D  086E               	movf	(??_main+0)+0,w
  1645  014E  00D7               	movwf	(_NextByteOut)
  1646                           	line	360
  1647                           ;CoachMasterCode.c: 359: }
  1648                           ;CoachMasterCode.c: 360: break;
  1649  014F  295E               	goto	l4580
  1650                           	line	361
  1651                           	
  1652  0150                     l4576:	
  1653                           ;CoachMasterCode.c: 361: }
  1654  0150  295E               	goto	l4580
  1655                           	line	189
  1656                           	
  1657  0151                     l1026:	
  1658                           	
  1659  0151                     l4578:	
  1660  0151  0839               	movf	(_CurrentX_State),w
  1661                           	; Switch size 1, requested type "space"
  1662                           ; Number of cases is 16, Range of values is 0 to 15
  1663                           ; switch strategies available:
  1664                           ; Name         Instructions Cycles
  1665                           ; direct_byte           39     7 (fixed)
  1666                           ; simple_byte           49    25 (average)
  1667                           ; jumptable            260     6 (fixed)
  1668                           ; rangetable            20     6 (fixed)
  1669                           ; spacedrange           38     9 (fixed)
  1670                           ; locatedrange          16     3 (fixed)
  1671                           ;	Chosen strategy is direct_byte
  1672                           
  1673  0152  0084               	movwf fsr
  1674  0153  3010               	movlw	16
  1675  0154  0204               	subwf	fsr,w
  1676  0155  1803               skipnc
  1677  0156  295E               goto l4580
  1678  0157  3004               movlw high(S4722)
  1679  0158  008A               movwf pclath
  1680  0159  1003               	clrc
  1681  015A  0D04               	rlf fsr,w
  1682  015B  3EAB               	addlw low(S4722)
  1683  015C  0082               	movwf pc
  1684                           psect	swtext1,local,class=CONST,delta=2
  1685                           global __pswtext1
  1686  04AB                     __pswtext1:
  1687  04AB                     S4722:
  1688  04AB  118A  2832         	ljmp	l4484
  1689  04AD  118A  2863         	ljmp	l4504
  1690  04AF  118A  286C         	ljmp	l4506
  1691  04B1  118A  2875         	ljmp	l4508
  1692  04B3  118A  287E         	ljmp	l4510
  1693  04B5  118A  2887         	ljmp	l4512
  1694  04B7  118A  2890         	ljmp	l4514
  1695  04B9  118A  2899         	ljmp	l4516
  1696  04BB  118A  28A2         	ljmp	l4518
  1697  04BD  118A  28AB         	ljmp	l4520
  1698  04BF  118A  28C8         	ljmp	l4530
  1699  04C1  118A  28E5         	ljmp	l4540
  1700  04C3  118A  2902         	ljmp	l4550
  1701  04C5  118A  291F         	ljmp	l4560
  1702  04C7  118A  293C         	ljmp	l4570
  1703  04C9  118A  2949         	ljmp	l1053
  1704                           psect	maintext
  1705                           
  1706                           	line	361
  1707                           	
  1708  015D                     l1028:	
  1709  015D  295E               	goto	l4580
  1710                           	line	362
  1711                           	
  1712  015E                     l1025:	
  1713                           	line	364
  1714                           	
  1715  015E                     l4580:	
  1716                           ;CoachMasterCode.c: 362: }
  1717                           ;CoachMasterCode.c: 364: if( R_Transition!=0 )
  1718  015E  084A               	movf	(_R_Transition),w
  1719  015F  1D03               	skipz
  1720  0160  2962               	goto	u3100
  1721  0161  2A32               	goto	l4652
  1722  0162                     u3100:
  1723                           	line	366
  1724                           	
  1725  0162                     l4582:	
  1726                           ;CoachMasterCode.c: 365: {
  1727                           ;CoachMasterCode.c: 366: R_Transition = 0;
  1728  0162  01CA               	clrf	(_R_Transition)
  1729                           	line	368
  1730                           ;CoachMasterCode.c: 368: switch( CurrentR_State )
  1731  0163  2A25               	goto	l4650
  1732                           	line	370
  1733                           ;CoachMasterCode.c: 369: {
  1734                           ;CoachMasterCode.c: 370: case R_Idle_State :
  1735                           	
  1736  0164                     l1056:	
  1737                           	line	372
  1738                           	
  1739  0164                     l4584:	
  1740                           ;CoachMasterCode.c: 371: {
  1741                           ;CoachMasterCode.c: 372: if (ByteIn == 0x7E)
  1742  0164  0836               	movf	(_ByteIn),w
  1743  0165  3A7E               	xorlw	07Eh
  1744  0166  1D03               	skipz
  1745  0167  2969               	goto	u3111
  1746  0168  296A               	goto	u3110
  1747  0169                     u3111:
  1748  0169  2A32               	goto	l4652
  1749  016A                     u3110:
  1750                           	line	373
  1751                           	
  1752  016A                     l4586:	
  1753                           ;CoachMasterCode.c: 373: { NextR_State = R_LengthMSB_State; }
  1754  016A  01BC               	clrf	(_NextR_State)
  1755  016B  1403               	bsf	status,0
  1756  016C  0DBC               	rlf	(_NextR_State),f
  1757  016D  2A32               	goto	l4652
  1758                           	
  1759  016E                     l1057:	
  1760                           	line	375
  1761                           ;CoachMasterCode.c: 374: }
  1762                           ;CoachMasterCode.c: 375: break;
  1763  016E  2A32               	goto	l4652
  1764                           	line	377
  1765                           ;CoachMasterCode.c: 377: case R_LengthMSB_State :
  1766                           	
  1767  016F                     l1059:	
  1768                           	line	379
  1769                           	
  1770  016F                     l4588:	
  1771                           ;CoachMasterCode.c: 378: {
  1772                           ;CoachMasterCode.c: 379: if ( ByteIn == 0x00 )
  1773  016F  08B6               	movf	(_ByteIn),f
  1774  0170  1D03               	skipz
  1775  0171  2973               	goto	u3121
  1776  0172  2974               	goto	u3120
  1777  0173                     u3121:
  1778  0173  2A32               	goto	l4652
  1779  0174                     u3120:
  1780                           	line	380
  1781                           	
  1782  0174                     l4590:	
  1783                           ;CoachMasterCode.c: 380: { NextR_State = R_LengthLSB_State; }
  1784  0174  3002               	movlw	(02h)
  1785  0175  00EE               	movwf	(??_main+0)+0
  1786  0176  086E               	movf	(??_main+0)+0,w
  1787  0177  00BC               	movwf	(_NextR_State)
  1788  0178  2A32               	goto	l4652
  1789                           	
  1790  0179                     l1060:	
  1791                           	line	382
  1792                           ;CoachMasterCode.c: 381: }
  1793                           ;CoachMasterCode.c: 382: break;
  1794  0179  2A32               	goto	l4652
  1795                           	line	384
  1796                           ;CoachMasterCode.c: 384: case R_LengthLSB_State :
  1797                           	
  1798  017A                     l1061:	
  1799                           	line	386
  1800                           	
  1801  017A                     l4592:	
  1802                           ;CoachMasterCode.c: 385: {
  1803                           ;CoachMasterCode.c: 386: NextR_State = R_API_State;
  1804  017A  3003               	movlw	(03h)
  1805  017B  00EE               	movwf	(??_main+0)+0
  1806  017C  086E               	movf	(??_main+0)+0,w
  1807  017D  00BC               	movwf	(_NextR_State)
  1808                           	line	387
  1809                           ;CoachMasterCode.c: 387: R_LengthLSB = ByteIn;
  1810  017E  0836               	movf	(_ByteIn),w
  1811  017F  00EE               	movwf	(??_main+0)+0
  1812  0180  086E               	movf	(??_main+0)+0,w
  1813  0181  00C5               	movwf	(_R_LengthLSB)
  1814                           	line	389
  1815                           ;CoachMasterCode.c: 388: }
  1816                           ;CoachMasterCode.c: 389: break;
  1817  0182  2A32               	goto	l4652
  1818                           	line	391
  1819                           ;CoachMasterCode.c: 391: case R_API_State :
  1820                           	
  1821  0183                     l1062:	
  1822                           	line	394
  1823                           	
  1824  0183                     l4594:	
  1825                           ;CoachMasterCode.c: 392: {
  1826                           ;CoachMasterCode.c: 394: R_API = ByteIn;
  1827  0183  0836               	movf	(_ByteIn),w
  1828  0184  00EE               	movwf	(??_main+0)+0
  1829  0185  086E               	movf	(??_main+0)+0,w
  1830  0186  00C0               	movwf	(_R_API)
  1831                           	line	395
  1832                           ;CoachMasterCode.c: 395: if (R_API == 0x89)
  1833  0187  0840               	movf	(_R_API),w
  1834  0188  3A89               	xorlw	089h
  1835  0189  1D03               	skipz
  1836  018A  298C               	goto	u3131
  1837  018B  298D               	goto	u3130
  1838  018C                     u3131:
  1839  018C  2992               	goto	l4598
  1840  018D                     u3130:
  1841                           	line	396
  1842                           	
  1843  018D                     l4596:	
  1844                           ;CoachMasterCode.c: 396: NextR_State = R_FID_State;
  1845  018D  300A               	movlw	(0Ah)
  1846  018E  00EE               	movwf	(??_main+0)+0
  1847  018F  086E               	movf	(??_main+0)+0,w
  1848  0190  00BC               	movwf	(_NextR_State)
  1849  0191  2A32               	goto	l4652
  1850                           	line	397
  1851                           	
  1852  0192                     l1063:	
  1853                           	
  1854  0192                     l4598:	
  1855                           ;CoachMasterCode.c: 397: else if (R_API == 0x81)
  1856  0192  0840               	movf	(_R_API),w
  1857  0193  3A81               	xorlw	081h
  1858  0194  1D03               	skipz
  1859  0195  2997               	goto	u3141
  1860  0196  2998               	goto	u3140
  1861  0197                     u3141:
  1862  0197  299E               	goto	l1065
  1863  0198                     u3140:
  1864                           	line	399
  1865                           	
  1866  0198                     l4600:	
  1867                           ;CoachMasterCode.c: 398: {
  1868                           ;CoachMasterCode.c: 399: NextR_State = R_AddrMSB_State;
  1869  0198  3004               	movlw	(04h)
  1870  0199  00EE               	movwf	(??_main+0)+0
  1871  019A  086E               	movf	(??_main+0)+0,w
  1872  019B  00BC               	movwf	(_NextR_State)
  1873                           	line	400
  1874                           	
  1875  019C                     l4602:	
  1876                           ;CoachMasterCode.c: 400: LostCommCounter = 0;
  1877  019C  01BA               	clrf	(_LostCommCounter)
  1878                           	line	401
  1879                           ;CoachMasterCode.c: 401: }
  1880  019D  2A32               	goto	l4652
  1881                           	line	402
  1882                           	
  1883  019E                     l1065:	
  1884                           	line	403
  1885                           ;CoachMasterCode.c: 402: else
  1886                           ;CoachMasterCode.c: 403: NextR_State = R_Idle_State;
  1887  019E  01BC               	clrf	(_NextR_State)
  1888  019F  2A32               	goto	l4652
  1889                           	
  1890  01A0                     l1066:	
  1891  01A0  2A32               	goto	l4652
  1892                           	
  1893  01A1                     l1064:	
  1894                           	line	405
  1895                           ;CoachMasterCode.c: 404: }
  1896                           ;CoachMasterCode.c: 405: break;
  1897  01A1  2A32               	goto	l4652
  1898                           	line	407
  1899                           ;CoachMasterCode.c: 407: case R_AddrMSB_State :
  1900                           	
  1901  01A2                     l1067:	
  1902                           	line	409
  1903                           	
  1904  01A2                     l4604:	
  1905                           ;CoachMasterCode.c: 408: {
  1906                           ;CoachMasterCode.c: 409: NextR_State = R_AddrLSB_State;
  1907  01A2  3005               	movlw	(05h)
  1908  01A3  00EE               	movwf	(??_main+0)+0
  1909  01A4  086E               	movf	(??_main+0)+0,w
  1910  01A5  00BC               	movwf	(_NextR_State)
  1911                           	line	410
  1912                           ;CoachMasterCode.c: 410: R_AddrMSB = ByteIn;
  1913  01A6  0836               	movf	(_ByteIn),w
  1914  01A7  00EE               	movwf	(??_main+0)+0
  1915  01A8  086E               	movf	(??_main+0)+0,w
  1916  01A9  00C2               	movwf	(_R_AddrMSB)
  1917                           	line	412
  1918                           ;CoachMasterCode.c: 411: }
  1919                           ;CoachMasterCode.c: 412: break;
  1920  01AA  2A32               	goto	l4652
  1921                           	line	414
  1922                           ;CoachMasterCode.c: 414: case R_AddrLSB_State :
  1923                           	
  1924  01AB                     l1068:	
  1925                           	line	416
  1926                           	
  1927  01AB                     l4606:	
  1928                           ;CoachMasterCode.c: 415: {
  1929                           ;CoachMasterCode.c: 416: NextR_State =R_SigStr_State;
  1930  01AB  3006               	movlw	(06h)
  1931  01AC  00EE               	movwf	(??_main+0)+0
  1932  01AD  086E               	movf	(??_main+0)+0,w
  1933  01AE  00BC               	movwf	(_NextR_State)
  1934                           	line	417
  1935                           ;CoachMasterCode.c: 417: R_AddrLSB = ByteIn;
  1936  01AF  0836               	movf	(_ByteIn),w
  1937  01B0  00EE               	movwf	(??_main+0)+0
  1938  01B1  086E               	movf	(??_main+0)+0,w
  1939  01B2  00C1               	movwf	(_R_AddrLSB)
  1940                           	line	419
  1941                           ;CoachMasterCode.c: 418: }
  1942                           ;CoachMasterCode.c: 419: break;
  1943  01B3  2A32               	goto	l4652
  1944                           	line	421
  1945                           ;CoachMasterCode.c: 421: case R_SigStr_State :
  1946                           	
  1947  01B4                     l1069:	
  1948                           	line	423
  1949                           	
  1950  01B4                     l4608:	
  1951                           ;CoachMasterCode.c: 422: {
  1952                           ;CoachMasterCode.c: 423: NextR_State = R_Options_State;
  1953  01B4  3007               	movlw	(07h)
  1954  01B5  00EE               	movwf	(??_main+0)+0
  1955  01B6  086E               	movf	(??_main+0)+0,w
  1956  01B7  00BC               	movwf	(_NextR_State)
  1957                           	line	424
  1958                           ;CoachMasterCode.c: 424: R_SigStr = ByteIn;
  1959  01B8  0836               	movf	(_ByteIn),w
  1960  01B9  00EE               	movwf	(??_main+0)+0
  1961  01BA  086E               	movf	(??_main+0)+0,w
  1962  01BB  00C9               	movwf	(_R_SigStr)
  1963                           	line	426
  1964                           ;CoachMasterCode.c: 425: }
  1965                           ;CoachMasterCode.c: 426: break;
  1966  01BC  2A32               	goto	l4652
  1967                           	line	428
  1968                           ;CoachMasterCode.c: 428: case R_Options_State :
  1969                           	
  1970  01BD                     l1070:	
  1971                           	line	430
  1972                           	
  1973  01BD                     l4610:	
  1974                           ;CoachMasterCode.c: 429: {
  1975                           ;CoachMasterCode.c: 430: NextR_State = R_CMD_State;
  1976  01BD  3008               	movlw	(08h)
  1977  01BE  00EE               	movwf	(??_main+0)+0
  1978  01BF  086E               	movf	(??_main+0)+0,w
  1979  01C0  00BC               	movwf	(_NextR_State)
  1980                           	line	431
  1981                           ;CoachMasterCode.c: 431: R_Options = ByteIn;
  1982  01C1  0836               	movf	(_ByteIn),w
  1983  01C2  00EE               	movwf	(??_main+0)+0
  1984  01C3  086E               	movf	(??_main+0)+0,w
  1985  01C4  00C6               	movwf	(_R_Options)
  1986                           	line	433
  1987                           ;CoachMasterCode.c: 432: }
  1988                           ;CoachMasterCode.c: 433: break;
  1989  01C5  2A32               	goto	l4652
  1990                           	line	436
  1991                           ;CoachMasterCode.c: 436: case R_CMD_State:
  1992                           	
  1993  01C6                     l1071:	
  1994                           	line	438
  1995                           	
  1996  01C6                     l4612:	
  1997                           ;CoachMasterCode.c: 437: {
  1998                           ;CoachMasterCode.c: 438: NextR_State = R_RF1_State;
  1999  01C6  3009               	movlw	(09h)
  2000  01C7  00EE               	movwf	(??_main+0)+0
  2001  01C8  086E               	movf	(??_main+0)+0,w
  2002  01C9  00BC               	movwf	(_NextR_State)
  2003                           	line	439
  2004                           ;CoachMasterCode.c: 439: R_CMD = ByteIn;
  2005  01CA  0836               	movf	(_ByteIn),w
  2006  01CB  00EE               	movwf	(??_main+0)+0
  2007  01CC  086E               	movf	(??_main+0)+0,w
  2008  01CD  00C3               	movwf	(_R_CMD)
  2009                           	line	442
  2010                           ;CoachMasterCode.c: 441: }
  2011                           ;CoachMasterCode.c: 442: break;
  2012  01CE  2A32               	goto	l4652
  2013                           	line	444
  2014                           ;CoachMasterCode.c: 444: case R_RF1_State :
  2015                           	
  2016  01CF                     l1072:	
  2017                           	line	446
  2018                           ;CoachMasterCode.c: 445: {
  2019                           ;CoachMasterCode.c: 446: NextR_State = R_Idle_State;
  2020  01CF  01BC               	clrf	(_NextR_State)
  2021                           	line	447
  2022                           	
  2023  01D0                     l4614:	
  2024                           ;CoachMasterCode.c: 447: R_RF1 = ByteIn;
  2025  01D0  0836               	movf	(_ByteIn),w
  2026  01D1  00EE               	movwf	(??_main+0)+0
  2027  01D2  086E               	movf	(??_main+0)+0,w
  2028  01D3  00C7               	movwf	(_R_RF1)
  2029                           	line	448
  2030                           ;CoachMasterCode.c: 448: if (R_CMD == 0x05)
  2031  01D4  0843               	movf	(_R_CMD),w
  2032  01D5  3A05               	xorlw	05h
  2033  01D6  1D03               	skipz
  2034  01D7  29D9               	goto	u3151
  2035  01D8  29DA               	goto	u3150
  2036  01D9                     u3151:
  2037  01D9  29F8               	goto	l4634
  2038  01DA                     u3150:
  2039                           	line	451
  2040                           	
  2041  01DA                     l4616:	
  2042                           ;CoachMasterCode.c: 449: {
  2043                           ;CoachMasterCode.c: 451: if(R_RF1&0x00000001)
  2044  01DA  1C47               	btfss	(_R_RF1),(0)&7
  2045  01DB  29DD               	goto	u3161
  2046  01DC  29DE               	goto	u3160
  2047  01DD                     u3161:
  2048  01DD  29F2               	goto	l4632
  2049  01DE                     u3160:
  2050                           	line	453
  2051                           	
  2052  01DE                     l4618:	
  2053                           ;CoachMasterCode.c: 452: {
  2054                           ;CoachMasterCode.c: 453: Paired = 1;
  2055  01DE  01BF               	clrf	(_Paired)
  2056  01DF  1403               	bsf	status,0
  2057  01E0  0DBF               	rlf	(_Paired),f
  2058                           	line	455
  2059                           	
  2060  01E1                     l4620:	
  2061                           ;CoachMasterCode.c: 455: X_AddrMSB = R_AddrMSB;
  2062  01E1  0842               	movf	(_R_AddrMSB),w
  2063  01E2  00EE               	movwf	(??_main+0)+0
  2064  01E3  086E               	movf	(??_main+0)+0,w
  2065  01E4  00DF               	movwf	(_X_AddrMSB)
  2066                           	line	456
  2067                           	
  2068  01E5                     l4622:	
  2069                           ;CoachMasterCode.c: 456: X_AddrLSB = R_AddrLSB;
  2070  01E5  0841               	movf	(_R_AddrLSB),w
  2071  01E6  00EE               	movwf	(??_main+0)+0
  2072  01E7  086E               	movf	(??_main+0)+0,w
  2073  01E8  00DE               	movwf	(_X_AddrLSB)
  2074                           	line	457
  2075                           	
  2076  01E9                     l4624:	
  2077                           ;CoachMasterCode.c: 457: CurrentType = 6;
  2078  01E9  3006               	movlw	(06h)
  2079  01EA  00EE               	movwf	(??_main+0)+0
  2080  01EB  086E               	movf	(??_main+0)+0,w
  2081  01EC  00D5               	movwf	(_CurrentType)
  2082                           	line	458
  2083                           	
  2084  01ED                     l4626:	
  2085                           ;CoachMasterCode.c: 458: PORTC_Copy|=0x00000004;
  2086  01ED  153E               	bsf	(_PORTC_Copy)+(2/8),(2)&7
  2087                           	line	459
  2088                           	
  2089  01EE                     l4628:	
  2090                           ;CoachMasterCode.c: 459: PORTC = PORTC_Copy;
  2091  01EE  083E               	movf	(_PORTC_Copy),w
  2092  01EF  0087               	movwf	(7)	;volatile
  2093                           	line	460
  2094                           	
  2095  01F0                     l4630:	
  2096                           ;CoachMasterCode.c: 460: LostCommCounter = 0;
  2097  01F0  01BA               	clrf	(_LostCommCounter)
  2098                           	line	462
  2099                           ;CoachMasterCode.c: 462: }
  2100  01F1  29F8               	goto	l4634
  2101                           	line	463
  2102                           	
  2103  01F2                     l1074:	
  2104                           	line	465
  2105                           	
  2106  01F2                     l4632:	
  2107                           ;CoachMasterCode.c: 463: else
  2108                           ;CoachMasterCode.c: 464: {
  2109                           ;CoachMasterCode.c: 465: XBee_State(0);
  2110  01F2  3000               	movlw	(0)
  2111  01F3  118A  2487  118A   	fcall	_XBee_State
  2112  01F6  29F8               	goto	l4634
  2113                           	line	466
  2114                           	
  2115  01F7                     l1075:	
  2116  01F7  29F8               	goto	l4634
  2117                           	line	468
  2118                           	
  2119  01F8                     l1073:	
  2120                           	line	469
  2121                           	
  2122  01F8                     l4634:	
  2123                           ;CoachMasterCode.c: 466: }
  2124                           ;CoachMasterCode.c: 468: }
  2125                           ;CoachMasterCode.c: 469: if (R_CMD == 0x06)
  2126  01F8  1283               	bcf	status, 5	;RP0=0, select bank0
  2127  01F9  1303               	bcf	status, 6	;RP1=0, select bank0
  2128  01FA  0843               	movf	(_R_CMD),w
  2129  01FB  3A06               	xorlw	06h
  2130  01FC  1D03               	skipz
  2131  01FD  29FF               	goto	u3171
  2132  01FE  2A00               	goto	u3170
  2133  01FF                     u3171:
  2134  01FF  2A32               	goto	l4652
  2135  0200                     u3170:
  2136                           	line	471
  2137                           	
  2138  0200                     l4636:	
  2139                           ;CoachMasterCode.c: 470: {
  2140                           ;CoachMasterCode.c: 471: Process_Status(R_RF1);
  2141  0200  0847               	movf	(_R_RF1),w
  2142  0201  118A  256F  118A   	fcall	_Process_Status
  2143  0204  2A32               	goto	l4652
  2144                           	line	472
  2145                           	
  2146  0205                     l1076:	
  2147                           	line	476
  2148                           ;CoachMasterCode.c: 472: }
  2149                           ;CoachMasterCode.c: 475: }
  2150                           ;CoachMasterCode.c: 476: break;
  2151  0205  2A32               	goto	l4652
  2152                           	line	479
  2153                           ;CoachMasterCode.c: 479: case R_FID_State :
  2154                           	
  2155  0206                     l1077:	
  2156                           	line	481
  2157                           	
  2158  0206                     l4638:	
  2159                           ;CoachMasterCode.c: 480: {
  2160                           ;CoachMasterCode.c: 481: NextR_State = R_STATUS_State;
  2161  0206  300B               	movlw	(0Bh)
  2162  0207  1283               	bcf	status, 5	;RP0=0, select bank0
  2163  0208  1303               	bcf	status, 6	;RP1=0, select bank0
  2164  0209  00EE               	movwf	(??_main+0)+0
  2165  020A  086E               	movf	(??_main+0)+0,w
  2166  020B  00BC               	movwf	(_NextR_State)
  2167                           	line	482
  2168                           ;CoachMasterCode.c: 482: R_FID = ByteIn;
  2169  020C  0836               	movf	(_ByteIn),w
  2170  020D  00EE               	movwf	(??_main+0)+0
  2171  020E  086E               	movf	(??_main+0)+0,w
  2172  020F  00C4               	movwf	(_R_FID)
  2173                           	line	484
  2174                           ;CoachMasterCode.c: 483: }
  2175                           ;CoachMasterCode.c: 484: break;
  2176  0210  2A32               	goto	l4652
  2177                           	line	486
  2178                           ;CoachMasterCode.c: 486: case R_STATUS_State :
  2179                           	
  2180  0211                     l1078:	
  2181                           	line	488
  2182                           ;CoachMasterCode.c: 487: {
  2183                           ;CoachMasterCode.c: 488: NextR_State = R_Idle_State;
  2184  0211  01BC               	clrf	(_NextR_State)
  2185                           	line	489
  2186                           	
  2187  0212                     l4640:	
  2188                           ;CoachMasterCode.c: 489: R_STATUS = ByteIn;
  2189  0212  0836               	movf	(_ByteIn),w
  2190  0213  00EE               	movwf	(??_main+0)+0
  2191  0214  086E               	movf	(??_main+0)+0,w
  2192  0215  00C8               	movwf	(_R_STATUS)
  2193                           	line	491
  2194                           ;CoachMasterCode.c: 491: if (R_STATUS)
  2195  0216  0848               	movf	(_R_STATUS),w
  2196  0217  1D03               	skipz
  2197  0218  2A1A               	goto	u3180
  2198  0219  2A32               	goto	l4652
  2199  021A                     u3180:
  2200                           	line	493
  2201                           	
  2202  021A                     l4642:	
  2203                           ;CoachMasterCode.c: 492: {
  2204                           ;CoachMasterCode.c: 493: X_Transition = 1;
  2205  021A  01E7               	clrf	(_X_Transition)
  2206  021B  1403               	bsf	status,0
  2207  021C  0DE7               	rlf	(_X_Transition),f
  2208                           	line	494
  2209                           	
  2210  021D                     l4644:	
  2211                           ;CoachMasterCode.c: 494: CurrentX_State = X_Idle_State;
  2212  021D  01B9               	clrf	(_CurrentX_State)
  2213                           	line	495
  2214                           	
  2215  021E                     l4646:	
  2216                           ;CoachMasterCode.c: 495: NextX_State = CurrentX_State;
  2217  021E  0839               	movf	(_CurrentX_State),w
  2218  021F  00EE               	movwf	(??_main+0)+0
  2219  0220  086E               	movf	(??_main+0)+0,w
  2220  0221  00BD               	movwf	(_NextX_State)
  2221  0222  2A32               	goto	l4652
  2222                           	line	496
  2223                           	
  2224  0223                     l1079:	
  2225                           	line	498
  2226                           ;CoachMasterCode.c: 496: }
  2227                           ;CoachMasterCode.c: 497: }
  2228                           ;CoachMasterCode.c: 498: break;
  2229  0223  2A32               	goto	l4652
  2230                           	line	502
  2231                           	
  2232  0224                     l4648:	
  2233                           ;CoachMasterCode.c: 502: }
  2234  0224  2A32               	goto	l4652
  2235                           	line	368
  2236                           	
  2237  0225                     l1055:	
  2238                           	
  2239  0225                     l4650:	
  2240  0225  0838               	movf	(_CurrentR_State),w
  2241                           	; Switch size 1, requested type "space"
  2242                           ; Number of cases is 12, Range of values is 0 to 11
  2243                           ; switch strategies available:
  2244                           ; Name         Instructions Cycles
  2245                           ; direct_byte           31     7 (fixed)
  2246                           ; simple_byte           37    19 (average)
  2247                           ; jumptable            260     6 (fixed)
  2248                           ; rangetable            16     6 (fixed)
  2249                           ; spacedrange           30     9 (fixed)
  2250                           ; locatedrange          12     3 (fixed)
  2251                           ;	Chosen strategy is direct_byte
  2252                           
  2253  0226  0084               	movwf fsr
  2254  0227  300C               	movlw	12
  2255  0228  0204               	subwf	fsr,w
  2256  0229  1803               skipnc
  2257  022A  2A32               goto l4652
  2258  022B  3005               movlw high(S4724)
  2259  022C  008A               movwf pclath
  2260  022D  1003               	clrc
  2261  022E  0D04               	rlf fsr,w
  2262  022F  3E00               	addlw low(S4724)
  2263  0230  0082               	movwf pc
  2264                           psect	swtext2,local,class=CONST,delta=2
  2265                           global __pswtext2
  2266  0500                     __pswtext2:
  2267  0500                     S4724:
  2268  0500  118A  2964         	ljmp	l4584
  2269  0502  118A  296F         	ljmp	l4588
  2270  0504  118A  297A         	ljmp	l4592
  2271  0506  118A  2983         	ljmp	l4594
  2272  0508  118A  29A2         	ljmp	l4604
  2273  050A  118A  29AB         	ljmp	l4606
  2274  050C  118A  29B4         	ljmp	l4608
  2275  050E  118A  29BD         	ljmp	l4610
  2276  0510  118A  29C6         	ljmp	l4612
  2277  0512  118A  29CF         	ljmp	l1072
  2278  0514  118A  2A06         	ljmp	l4638
  2279  0516  118A  2A11         	ljmp	l1078
  2280                           psect	maintext
  2281                           
  2282                           	line	502
  2283                           	
  2284  0231                     l1058:	
  2285  0231  2A32               	goto	l4652
  2286                           	line	503
  2287                           	
  2288  0232                     l1054:	
  2289                           	line	506
  2290                           	
  2291  0232                     l4652:	
  2292                           ;CoachMasterCode.c: 503: }
  2293                           ;CoachMasterCode.c: 506: if (SEND && TXIF)
  2294  0232  1283               	bcf	status, 5	;RP0=0, select bank0
  2295  0233  1303               	bcf	status, 6	;RP1=0, select bank0
  2296  0234  084B               	movf	(_SEND),w
  2297  0235  1D03               	skipz
  2298  0236  2A38               	goto	u3190
  2299  0237  2A42               	goto	l4660
  2300  0238                     u3190:
  2301                           	
  2302  0238                     l4654:	
  2303  0238  1E0C               	btfss	(100/8),(100)&7
  2304  0239  2A3B               	goto	u3201
  2305  023A  2A3C               	goto	u3200
  2306  023B                     u3201:
  2307  023B  2A42               	goto	l4660
  2308  023C                     u3200:
  2309                           	line	508
  2310                           	
  2311  023C                     l4656:	
  2312                           ;CoachMasterCode.c: 507: {
  2313                           ;CoachMasterCode.c: 508: X_Transition = 1;
  2314  023C  01E7               	clrf	(_X_Transition)
  2315  023D  1403               	bsf	status,0
  2316  023E  0DE7               	rlf	(_X_Transition),f
  2317                           	line	509
  2318                           	
  2319  023F                     l4658:	
  2320                           ;CoachMasterCode.c: 509: TXREG = NextByteOut;
  2321  023F  0857               	movf	(_NextByteOut),w
  2322  0240  0099               	movwf	(25)
  2323  0241  2A42               	goto	l4660
  2324                           	line	510
  2325                           	
  2326  0242                     l1080:	
  2327                           	line	512
  2328                           	
  2329  0242                     l4660:	
  2330                           ;CoachMasterCode.c: 510: }
  2331                           ;CoachMasterCode.c: 512: CurrentX_State = NextX_State;
  2332  0242  083D               	movf	(_NextX_State),w
  2333  0243  00EE               	movwf	(??_main+0)+0
  2334  0244  086E               	movf	(??_main+0)+0,w
  2335  0245  00B9               	movwf	(_CurrentX_State)
  2336                           	line	513
  2337                           	
  2338  0246                     l4662:	
  2339                           ;CoachMasterCode.c: 513: CurrentR_State = NextR_State;
  2340  0246  083C               	movf	(_NextR_State),w
  2341  0247  00EE               	movwf	(??_main+0)+0
  2342  0248  086E               	movf	(??_main+0)+0,w
  2343  0249  00B8               	movwf	(_CurrentR_State)
  2344  024A  2828               	goto	l4478
  2345                           	line	515
  2346                           	
  2347  024B                     l1024:	
  2348  024B  2828               	goto	l4478
  2349                           	line	516
  2350                           	
  2351  024C                     l1081:	
  2352                           	line	175
  2353  024C  2828               	goto	l4478
  2354                           	
  2355  024D                     l1082:	
  2356                           	line	518
  2357                           	
  2358  024D                     l1083:	
  2359                           	global	start
  2360  024D  118A  2811         	ljmp	start
  2361                           	opt stack 0
  2362                           GLOBAL	__end_of_main
  2363  024F                     	__end_of_main:
  2364 ;; =============== function _main ends ============
  2365                           
  2366                           	signat	_main,88
  2367                           	global	_Process_Status
  2368                           psect	text427,local,class=CODE,delta=2
  2369                           global __ptext427
  2370  056F                     __ptext427:
  2371                           
  2372 ;; *************** function _Process_Status *****************
  2373 ;; Defined at:
  2374 ;;		line 721 in file "U:\_218c Teams\BringItOn\218C Project - World Cup\COACH CODE WE ARE USING\MasterCoach\MasterCoach\
       CoachMasterCode.c"
  2375 ;; Parameters:    Size  Location     Type
  2376 ;;  status          1    wreg     unsigned char 
  2377 ;; Auto vars:     Size  Location     Type
  2378 ;;  status          1    1[BANK0 ] unsigned char 
  2379 ;; Return value:  Size  Location     Type
  2380 ;;		None               void
  2381 ;; Registers used:
  2382 ;;		wreg
  2383 ;; Tracked objects:
  2384 ;;		On entry : 0/0
  2385 ;;		On exit  : 0/0
  2386 ;;		Unchanged: 0/0
  2387 ;; Data sizes:     COMMON   BANK0   BANK1   BANK2
  2388 ;;      Params:         0       0       0       0
  2389 ;;      Locals:         0       1       0       0
  2390 ;;      Temps:          0       1       0       0
  2391 ;;      Totals:         0       2       0       0
  2392 ;;Total ram usage:        2 bytes
  2393 ;; Hardware stack levels used:    1
  2394 ;; Hardware stack levels required when called:    2
  2395 ;; This function calls:
  2396 ;;		Nothing
  2397 ;; This function is called by:
  2398 ;;		_main
  2399 ;; This function uses a non-reentrant model
  2400 ;;
  2401                           psect	text427
  2402                           	file	"U:\_218c Teams\BringItOn\218C Project - World Cup\COACH CODE WE ARE USING\MasterC
                                 oach\MasterCoach\CoachMasterCode.c"
  2403                           	line	721
  2404                           	global	__size_of_Process_Status
  2405  0008                     	__size_of_Process_Status	equ	__end_of_Process_Status-_Process_Status
  2406                           	
  2407  056F                     _Process_Status:	
  2408                           	opt	stack 5
  2409                           ; Regs used in _Process_Status: [wreg]
  2410                           ;Process_Status@status stored from wreg
  2411  056F  1283               	bcf	status, 5	;RP0=0, select bank0
  2412  0570  1303               	bcf	status, 6	;RP1=0, select bank0
  2413  0571  00E9               	movwf	(Process_Status@status)
  2414                           	line	722
  2415                           	
  2416  0572                     l4086:	
  2417                           ;CoachMasterCode.c: 722: SDATA = status;
  2418  0572  0869               	movf	(Process_Status@status),w
  2419  0573  00E8               	movwf	(??_Process_Status+0)+0
  2420  0574  0868               	movf	(??_Process_Status+0)+0,w
  2421  0575  00DA               	movwf	(_SDATA)
  2422                           	line	723
  2423                           	
  2424  0576                     l1120:	
  2425  0576  0008               	return
  2426                           	opt stack 0
  2427                           GLOBAL	__end_of_Process_Status
  2428  0577                     	__end_of_Process_Status:
  2429 ;; =============== function _Process_Status ends ============
  2430                           
  2431                           	signat	_Process_Status,4216
  2432                           	global	_XBee_State
  2433                           psect	text428,local,class=CODE,delta=2
  2434                           global __ptext428
  2435  0487                     __ptext428:
  2436                           
  2437 ;; *************** function _XBee_State *****************
  2438 ;; Defined at:
  2439 ;;		line 735 in file "U:\_218c Teams\BringItOn\218C Project - World Cup\COACH CODE WE ARE USING\MasterCoach\MasterCoach\
       CoachMasterCode.c"
  2440 ;; Parameters:    Size  Location     Type
  2441 ;;  x               1    wreg     unsigned char 
  2442 ;; Auto vars:     Size  Location     Type
  2443 ;;  x               1    1[BANK0 ] unsigned char 
  2444 ;; Return value:  Size  Location     Type
  2445 ;;		None               void
  2446 ;; Registers used:
  2447 ;;		wreg, status,2, status,0
  2448 ;; Tracked objects:
  2449 ;;		On entry : 0/0
  2450 ;;		On exit  : 0/0
  2451 ;;		Unchanged: 0/0
  2452 ;; Data sizes:     COMMON   BANK0   BANK1   BANK2
  2453 ;;      Params:         0       0       0       0
  2454 ;;      Locals:         0       1       0       0
  2455 ;;      Temps:          0       1       0       0
  2456 ;;      Totals:         0       2       0       0
  2457 ;;Total ram usage:        2 bytes
  2458 ;; Hardware stack levels used:    1
  2459 ;; Hardware stack levels required when called:    2
  2460 ;; This function calls:
  2461 ;;		Nothing
  2462 ;; This function is called by:
  2463 ;;		_main
  2464 ;; This function uses a non-reentrant model
  2465 ;;
  2466                           psect	text428
  2467                           	file	"U:\_218c Teams\BringItOn\218C Project - World Cup\COACH CODE WE ARE USING\MasterC
                                 oach\MasterCoach\CoachMasterCode.c"
  2468                           	line	735
  2469                           	global	__size_of_XBee_State
  2470  0024                     	__size_of_XBee_State	equ	__end_of_XBee_State-_XBee_State
  2471                           	
  2472  0487                     _XBee_State:	
  2473                           	opt	stack 5
  2474                           ; Regs used in _XBee_State: [wreg+status,2+status,0]
  2475                           ;XBee_State@x stored from wreg
  2476  0487  1283               	bcf	status, 5	;RP0=0, select bank0
  2477  0488  1303               	bcf	status, 6	;RP1=0, select bank0
  2478  0489  00E9               	movwf	(XBee_State@x)
  2479                           	line	736
  2480                           	
  2481  048A                     l4066:	
  2482                           ;CoachMasterCode.c: 736: if(x)
  2483  048A  0869               	movf	(XBee_State@x),w
  2484  048B  1D03               	skipz
  2485  048C  2C8E               	goto	u2680
  2486  048D  2C9C               	goto	l1126
  2487  048E                     u2680:
  2488                           	line	738
  2489                           	
  2490  048E                     l4068:	
  2491                           ;CoachMasterCode.c: 737: {
  2492                           ;CoachMasterCode.c: 738: CommActive = 1;
  2493  048E  01B7               	clrf	(_CommActive)
  2494  048F  1403               	bsf	status,0
  2495  0490  0DB7               	rlf	(_CommActive),f
  2496                           	line	739
  2497                           	
  2498  0491                     l4070:	
  2499                           ;CoachMasterCode.c: 739: CurrentR_State = R_Idle_State;
  2500  0491  01B8               	clrf	(_CurrentR_State)
  2501                           	line	740
  2502                           	
  2503  0492                     l4072:	
  2504                           ;CoachMasterCode.c: 740: CurrentX_State = X_Idle_State;
  2505  0492  01B9               	clrf	(_CurrentX_State)
  2506                           	line	741
  2507                           	
  2508  0493                     l4074:	
  2509                           ;CoachMasterCode.c: 741: PORTC_Copy&=~0x00000001;
  2510  0493  30FE               	movlw	(0FEh)
  2511  0494  00E8               	movwf	(??_XBee_State+0)+0
  2512  0495  0868               	movf	(??_XBee_State+0)+0,w
  2513  0496  05BE               	andwf	(_PORTC_Copy),f
  2514                           	line	742
  2515                           	
  2516  0497                     l4076:	
  2517                           ;CoachMasterCode.c: 742: PORTC_Copy|=0x00000002;
  2518  0497  14BE               	bsf	(_PORTC_Copy)+(1/8),(1)&7
  2519                           	line	743
  2520                           	
  2521  0498                     l4078:	
  2522                           ;CoachMasterCode.c: 743: LostCommCounter = 0;
  2523  0498  01BA               	clrf	(_LostCommCounter)
  2524                           	line	744
  2525                           ;CoachMasterCode.c: 744: PORTC = PORTC_Copy;
  2526  0499  083E               	movf	(_PORTC_Copy),w
  2527  049A  0087               	movwf	(7)	;volatile
  2528                           	line	745
  2529                           ;CoachMasterCode.c: 745: }
  2530  049B  2CAA               	goto	l1128
  2531                           	line	746
  2532                           	
  2533  049C                     l1126:	
  2534                           	line	748
  2535                           ;CoachMasterCode.c: 746: else
  2536                           ;CoachMasterCode.c: 747: {
  2537                           ;CoachMasterCode.c: 748: LostCommCounter = 0;
  2538  049C  01BA               	clrf	(_LostCommCounter)
  2539                           	line	749
  2540                           ;CoachMasterCode.c: 749: CommActive = 0;
  2541  049D  01B7               	clrf	(_CommActive)
  2542                           	line	750
  2543                           	
  2544  049E                     l4080:	
  2545                           ;CoachMasterCode.c: 750: PORTC_Copy&=~0x00000002;
  2546  049E  30FD               	movlw	(0FDh)
  2547  049F  00E8               	movwf	(??_XBee_State+0)+0
  2548  04A0  0868               	movf	(??_XBee_State+0)+0,w
  2549  04A1  05BE               	andwf	(_PORTC_Copy),f
  2550                           	line	751
  2551                           ;CoachMasterCode.c: 751: PORTC_Copy&=~0x00000004;
  2552  04A2  30FB               	movlw	(0FBh)
  2553  04A3  00E8               	movwf	(??_XBee_State+0)+0
  2554  04A4  0868               	movf	(??_XBee_State+0)+0,w
  2555  04A5  05BE               	andwf	(_PORTC_Copy),f
  2556                           	line	752
  2557                           	
  2558  04A6                     l4082:	
  2559                           ;CoachMasterCode.c: 752: PORTC_Copy|=0x00000001;
  2560  04A6  143E               	bsf	(_PORTC_Copy)+(0/8),(0)&7
  2561                           	line	753
  2562                           	
  2563  04A7                     l4084:	
  2564                           ;CoachMasterCode.c: 753: PORTC = PORTC_Copy;
  2565  04A7  083E               	movf	(_PORTC_Copy),w
  2566  04A8  0087               	movwf	(7)	;volatile
  2567  04A9  2CAA               	goto	l1128
  2568                           	line	755
  2569                           	
  2570  04AA                     l1127:	
  2571                           	line	756
  2572                           	
  2573  04AA                     l1128:	
  2574  04AA  0008               	return
  2575                           	opt stack 0
  2576                           GLOBAL	__end_of_XBee_State
  2577  04AB                     	__end_of_XBee_State:
  2578 ;; =============== function _XBee_State ends ============
  2579                           
  2580                           	signat	_XBee_State,4216
  2581                           	global	_CalculateChecksum
  2582                           psect	text429,local,class=CODE,delta=2
  2583                           global __ptext429
  2584  03AA                     __ptext429:
  2585                           
  2586 ;; *************** function _CalculateChecksum *****************
  2587 ;; Defined at:
  2588 ;;		line 700 in file "U:\_218c Teams\BringItOn\218C Project - World Cup\COACH CODE WE ARE USING\MasterCoach\MasterCoach\
       CoachMasterCode.c"
  2589 ;; Parameters:    Size  Location     Type
  2590 ;;		None
  2591 ;; Auto vars:     Size  Location     Type
  2592 ;;  checksum        1    5[BANK0 ] char 
  2593 ;; Return value:  Size  Location     Type
  2594 ;;                  1    wreg      char 
  2595 ;; Registers used:
  2596 ;;		wreg, status,2, status,0
  2597 ;; Tracked objects:
  2598 ;;		On entry : 0/0
  2599 ;;		On exit  : 0/0
  2600 ;;		Unchanged: 0/0
  2601 ;; Data sizes:     COMMON   BANK0   BANK1   BANK2
  2602 ;;      Params:         0       0       0       0
  2603 ;;      Locals:         0       1       0       0
  2604 ;;      Temps:          0       5       0       0
  2605 ;;      Totals:         0       6       0       0
  2606 ;;Total ram usage:        6 bytes
  2607 ;; Hardware stack levels used:    1
  2608 ;; Hardware stack levels required when called:    2
  2609 ;; This function calls:
  2610 ;;		Nothing
  2611 ;; This function is called by:
  2612 ;;		_main
  2613 ;; This function uses a non-reentrant model
  2614 ;;
  2615                           psect	text429
  2616                           	file	"U:\_218c Teams\BringItOn\218C Project - World Cup\COACH CODE WE ARE USING\MasterC
                                 oach\MasterCoach\CoachMasterCode.c"
  2617                           	line	700
  2618                           	global	__size_of_CalculateChecksum
  2619  004A                     	__size_of_CalculateChecksum	equ	__end_of_CalculateChecksum-_CalculateChecksum
  2620                           	
  2621  03AA                     _CalculateChecksum:	
  2622                           	opt	stack 5
  2623                           ; Regs used in _CalculateChecksum: [wreg+status,2+status,0]
  2624                           	line	701
  2625                           	
  2626  03AA                     l4038:	
  2627                           ;CoachMasterCode.c: 701: signed char checksum = 0xFF;
  2628  03AA  1283               	bcf	status, 5	;RP0=0, select bank0
  2629  03AB  1303               	bcf	status, 6	;RP1=0, select bank0
  2630  03AC  01ED               	clrf	(CalculateChecksum@checksum)
  2631  03AD  03ED               	decf	(CalculateChecksum@checksum),f
  2632                           	line	703
  2633                           	
  2634  03AE                     l4040:	
  2635                           ;CoachMasterCode.c: 703: checksum -= ( X_API + X_FID + X_AddrMSB + X_AddrLSB + X_Options
                                  + X_CMD );
  2636  03AE  0861               	movf	(_X_FID),w
  2637  03AF  075D               	addwf	(_X_API),w
  2638  03B0  00E8               	movwf	(??_CalculateChecksum+0)+0
  2639  03B1  085F               	movf	(_X_AddrMSB),w
  2640  03B2  0768               	addwf	0+(??_CalculateChecksum+0)+0,w
  2641  03B3  00E9               	movwf	(??_CalculateChecksum+1)+0
  2642  03B4  085E               	movf	(_X_AddrLSB),w
  2643  03B5  0769               	addwf	0+(??_CalculateChecksum+1)+0,w
  2644  03B6  00EA               	movwf	(??_CalculateChecksum+2)+0
  2645  03B7  0852               	movf	(_X_Options),w
  2646  03B8  076A               	addwf	0+(??_CalculateChecksum+2)+0,w
  2647  03B9  00EB               	movwf	(??_CalculateChecksum+3)+0
  2648  03BA  0860               	movf	(_X_CMD),w
  2649  03BB  076B               	addwf	0+(??_CalculateChecksum+3)+0,w
  2650  03BC  00EC               	movwf	(??_CalculateChecksum+4)+0
  2651  03BD  086C               	movf	0+(??_CalculateChecksum+4)+0,w
  2652  03BE  02ED               	subwf	(CalculateChecksum@checksum),f
  2653                           	line	705
  2654                           	
  2655  03BF                     l4042:	
  2656                           ;CoachMasterCode.c: 705: if (X_LengthLSB > 6)
  2657  03BF  0850               	movf	(_X_LengthLSB),w
  2658  03C0  3A80               	xorlw	80h
  2659  03C1  3E79               	addlw	-((07h)^80h)
  2660  03C2  1C03               	skipc
  2661  03C3  2BC5               	goto	u2631
  2662  03C4  2BC6               	goto	u2630
  2663  03C5                     u2631:
  2664  03C5  2BC9               	goto	l4046
  2665  03C6                     u2630:
  2666                           	line	706
  2667                           	
  2668  03C6                     l4044:	
  2669                           ;CoachMasterCode.c: 706: { checksum -= X_RF1; }
  2670  03C6  0862               	movf	(_X_RF1),w
  2671  03C7  02ED               	subwf	(CalculateChecksum@checksum),f
  2672  03C8  2BC9               	goto	l4046
  2673                           	
  2674  03C9                     l1112:	
  2675                           	line	707
  2676                           	
  2677  03C9                     l4046:	
  2678                           ;CoachMasterCode.c: 707: if (X_LengthLSB > 7)
  2679  03C9  0850               	movf	(_X_LengthLSB),w
  2680  03CA  3A80               	xorlw	80h
  2681  03CB  3E78               	addlw	-((08h)^80h)
  2682  03CC  1C03               	skipc
  2683  03CD  2BCF               	goto	u2641
  2684  03CE  2BD0               	goto	u2640
  2685  03CF                     u2641:
  2686  03CF  2BD3               	goto	l4050
  2687  03D0                     u2640:
  2688                           	line	708
  2689                           	
  2690  03D0                     l4048:	
  2691                           ;CoachMasterCode.c: 708: { checksum -= X_RF2; }
  2692  03D0  0863               	movf	(_X_RF2),w
  2693  03D1  02ED               	subwf	(CalculateChecksum@checksum),f
  2694  03D2  2BD3               	goto	l4050
  2695                           	
  2696  03D3                     l1113:	
  2697                           	line	709
  2698                           	
  2699  03D3                     l4050:	
  2700                           ;CoachMasterCode.c: 709: if (X_LengthLSB > 8)
  2701  03D3  0850               	movf	(_X_LengthLSB),w
  2702  03D4  3A80               	xorlw	80h
  2703  03D5  3E77               	addlw	-((09h)^80h)
  2704  03D6  1C03               	skipc
  2705  03D7  2BD9               	goto	u2651
  2706  03D8  2BDA               	goto	u2650
  2707  03D9                     u2651:
  2708  03D9  2BDD               	goto	l4054
  2709  03DA                     u2650:
  2710                           	line	710
  2711                           	
  2712  03DA                     l4052:	
  2713                           ;CoachMasterCode.c: 710: { checksum -= X_RF3; }
  2714  03DA  0864               	movf	(_X_RF3),w
  2715  03DB  02ED               	subwf	(CalculateChecksum@checksum),f
  2716  03DC  2BDD               	goto	l4054
  2717                           	
  2718  03DD                     l1114:	
  2719                           	line	711
  2720                           	
  2721  03DD                     l4054:	
  2722                           ;CoachMasterCode.c: 711: if (X_LengthLSB > 9)
  2723  03DD  0850               	movf	(_X_LengthLSB),w
  2724  03DE  3A80               	xorlw	80h
  2725  03DF  3E76               	addlw	-((0Ah)^80h)
  2726  03E0  1C03               	skipc
  2727  03E1  2BE3               	goto	u2661
  2728  03E2  2BE4               	goto	u2660
  2729  03E3                     u2661:
  2730  03E3  2BE7               	goto	l4058
  2731  03E4                     u2660:
  2732                           	line	712
  2733                           	
  2734  03E4                     l4056:	
  2735                           ;CoachMasterCode.c: 712: { checksum -= X_RF4; }
  2736  03E4  0865               	movf	(_X_RF4),w
  2737  03E5  02ED               	subwf	(CalculateChecksum@checksum),f
  2738  03E6  2BE7               	goto	l4058
  2739                           	
  2740  03E7                     l1115:	
  2741                           	line	713
  2742                           	
  2743  03E7                     l4058:	
  2744                           ;CoachMasterCode.c: 713: if (X_LengthLSB > 10)
  2745  03E7  0850               	movf	(_X_LengthLSB),w
  2746  03E8  3A80               	xorlw	80h
  2747  03E9  3E75               	addlw	-((0Bh)^80h)
  2748  03EA  1C03               	skipc
  2749  03EB  2BED               	goto	u2671
  2750  03EC  2BEE               	goto	u2670
  2751  03ED                     u2671:
  2752  03ED  2BF1               	goto	l4062
  2753  03EE                     u2670:
  2754                           	line	714
  2755                           	
  2756  03EE                     l4060:	
  2757                           ;CoachMasterCode.c: 714: { checksum -= X_RF5; }
  2758  03EE  0866               	movf	(_X_RF5),w
  2759  03EF  02ED               	subwf	(CalculateChecksum@checksum),f
  2760  03F0  2BF1               	goto	l4062
  2761                           	
  2762  03F1                     l1116:	
  2763                           	line	716
  2764                           	
  2765  03F1                     l4062:	
  2766                           ;CoachMasterCode.c: 716: return checksum;
  2767  03F1  086D               	movf	(CalculateChecksum@checksum),w
  2768  03F2  2BF3               	goto	l1117
  2769                           	
  2770  03F3                     l4064:	
  2771                           	line	717
  2772                           	
  2773  03F3                     l1117:	
  2774  03F3  0008               	return
  2775                           	opt stack 0
  2776                           GLOBAL	__end_of_CalculateChecksum
  2777  03F4                     	__end_of_CalculateChecksum:
  2778 ;; =============== function _CalculateChecksum ends ============
  2779                           
  2780                           	signat	_CalculateChecksum,89
  2781                           	global	_Encode_Message
  2782                           psect	text430,local,class=CODE,delta=2
  2783                           global __ptext430
  2784  030C                     __ptext430:
  2785                           
  2786 ;; *************** function _Encode_Message *****************
  2787 ;; Defined at:
  2788 ;;		line 762 in file "U:\_218c Teams\BringItOn\218C Project - World Cup\COACH CODE WE ARE USING\MasterCoach\MasterCoach\
       CoachMasterCode.c"
  2789 ;; Parameters:    Size  Location     Type
  2790 ;;  Type            1    wreg     unsigned char 
  2791 ;; Auto vars:     Size  Location     Type
  2792 ;;  Type            1    1[BANK0 ] unsigned char 
  2793 ;;  Length          1    2[BANK0 ] unsigned char 
  2794 ;; Return value:  Size  Location     Type
  2795 ;;                  1    wreg      unsigned char 
  2796 ;; Registers used:
  2797 ;;		wreg, fsr0l, fsr0h, status,2, status,0
  2798 ;; Tracked objects:
  2799 ;;		On entry : 0/0
  2800 ;;		On exit  : 0/0
  2801 ;;		Unchanged: 0/0
  2802 ;; Data sizes:     COMMON   BANK0   BANK1   BANK2
  2803 ;;      Params:         0       0       0       0
  2804 ;;      Locals:         0       2       0       0
  2805 ;;      Temps:          0       1       0       0
  2806 ;;      Totals:         0       3       0       0
  2807 ;;Total ram usage:        3 bytes
  2808 ;; Hardware stack levels used:    1
  2809 ;; Hardware stack levels required when called:    2
  2810 ;; This function calls:
  2811 ;;		Nothing
  2812 ;; This function is called by:
  2813 ;;		_main
  2814 ;; This function uses a non-reentrant model
  2815 ;;
  2816                           psect	text430
  2817                           	file	"U:\_218c Teams\BringItOn\218C Project - World Cup\COACH CODE WE ARE USING\MasterC
                                 oach\MasterCoach\CoachMasterCode.c"
  2818                           	line	762
  2819                           	global	__size_of_Encode_Message
  2820  009E                     	__size_of_Encode_Message	equ	__end_of_Encode_Message-_Encode_Message
  2821                           	
  2822  030C                     _Encode_Message:	
  2823                           	opt	stack 5
  2824                           ; Regs used in _Encode_Message: [wreg-fsr0h+status,2+status,0]
  2825                           ;Encode_Message@Type stored from wreg
  2826                           	line	772
  2827  030C  1283               	bcf	status, 5	;RP0=0, select bank0
  2828  030D  1303               	bcf	status, 6	;RP1=0, select bank0
  2829  030E  00E9               	movwf	(Encode_Message@Type)
  2830                           	
  2831  030F                     l3940:	
  2832                           ;CoachMasterCode.c: 772: unsigned char Length = 0;
  2833  030F  01EA               	clrf	(Encode_Message@Length)
  2834                           	line	774
  2835                           ;CoachMasterCode.c: 774: switch (Type)
  2836  0310  2B9B               	goto	l4030
  2837                           	line	776
  2838                           ;CoachMasterCode.c: 775: {
  2839                           ;CoachMasterCode.c: 776: case 0:
  2840                           	
  2841  0311                     l1132:	
  2842                           	line	779
  2843                           	
  2844  0311                     l3942:	
  2845                           ;CoachMasterCode.c: 777: {
  2846                           ;CoachMasterCode.c: 779: TXData[0] = 0x04;
  2847  0311  3004               	movlw	(04h)
  2848  0312  00E8               	movwf	(??_Encode_Message+0)+0
  2849  0313  0868               	movf	(??_Encode_Message+0)+0,w
  2850  0314  00B0               	movwf	(_TXData)
  2851                           	line	780
  2852                           	
  2853  0315                     l3944:	
  2854                           ;CoachMasterCode.c: 780: TXData[1] = 0;
  2855  0315  01B1               	clrf	0+(_TXData)+01h
  2856                           	line	781
  2857                           	
  2858  0316                     l3946:	
  2859                           ;CoachMasterCode.c: 781: TXData[2] = 0;
  2860  0316  01B2               	clrf	0+(_TXData)+02h
  2861                           	line	782
  2862                           	
  2863  0317                     l3948:	
  2864                           ;CoachMasterCode.c: 782: TXData[3] = 0;
  2865  0317  01B3               	clrf	0+(_TXData)+03h
  2866                           	line	783
  2867                           	
  2868  0318                     l3950:	
  2869                           ;CoachMasterCode.c: 783: TXData[4] = 0;
  2870  0318  01B4               	clrf	0+(_TXData)+04h
  2871                           	line	784
  2872                           	
  2873  0319                     l3952:	
  2874                           ;CoachMasterCode.c: 784: TXData[5] = 0;
  2875  0319  01B5               	clrf	0+(_TXData)+05h
  2876                           	line	785
  2877                           	
  2878  031A                     l3954:	
  2879                           ;CoachMasterCode.c: 785: Length = 1;
  2880  031A  01EA               	clrf	(Encode_Message@Length)
  2881  031B  1403               	bsf	status,0
  2882  031C  0DEA               	rlf	(Encode_Message@Length),f
  2883                           	line	789
  2884                           ;CoachMasterCode.c: 788: }
  2885                           ;CoachMasterCode.c: 789: break;
  2886  031D  2BA7               	goto	l4032
  2887                           	line	791
  2888                           ;CoachMasterCode.c: 791: case 1:
  2889                           	
  2890  031E                     l1134:	
  2891                           	line	794
  2892                           	
  2893  031E                     l3956:	
  2894                           ;CoachMasterCode.c: 792: {
  2895                           ;CoachMasterCode.c: 794: TXData[0] = 0x02;
  2896  031E  3002               	movlw	(02h)
  2897  031F  00E8               	movwf	(??_Encode_Message+0)+0
  2898  0320  0868               	movf	(??_Encode_Message+0)+0,w
  2899  0321  00B0               	movwf	(_TXData)
  2900                           	line	795
  2901                           ;CoachMasterCode.c: 795: TXData[1] = TAGINFO;
  2902  0322  085C               	movf	(_TAGINFO),w
  2903  0323  00E8               	movwf	(??_Encode_Message+0)+0
  2904  0324  0868               	movf	(??_Encode_Message+0)+0,w
  2905  0325  00B1               	movwf	0+(_TXData)+01h
  2906                           	line	796
  2907                           	
  2908  0326                     l3958:	
  2909                           ;CoachMasterCode.c: 796: TXData[2] = 0;
  2910  0326  01B2               	clrf	0+(_TXData)+02h
  2911                           	line	797
  2912                           	
  2913  0327                     l3960:	
  2914                           ;CoachMasterCode.c: 797: TXData[3] = 0;
  2915  0327  01B3               	clrf	0+(_TXData)+03h
  2916                           	line	798
  2917                           	
  2918  0328                     l3962:	
  2919                           ;CoachMasterCode.c: 798: TXData[4] = 0;
  2920  0328  01B4               	clrf	0+(_TXData)+04h
  2921                           	line	799
  2922                           	
  2923  0329                     l3964:	
  2924                           ;CoachMasterCode.c: 799: TXData[5] = 0;
  2925  0329  01B5               	clrf	0+(_TXData)+05h
  2926                           	line	800
  2927                           ;CoachMasterCode.c: 800: Length = 2;
  2928  032A  3002               	movlw	(02h)
  2929  032B  00E8               	movwf	(??_Encode_Message+0)+0
  2930  032C  0868               	movf	(??_Encode_Message+0)+0,w
  2931  032D  00EA               	movwf	(Encode_Message@Length)
  2932                           	line	803
  2933                           ;CoachMasterCode.c: 802: }
  2934                           ;CoachMasterCode.c: 803: break;
  2935  032E  2BA7               	goto	l4032
  2936                           	line	806
  2937                           ;CoachMasterCode.c: 806: case 2:
  2938                           	
  2939  032F                     l1135:	
  2940                           	line	809
  2941                           	
  2942  032F                     l3966:	
  2943                           ;CoachMasterCode.c: 807: {
  2944                           ;CoachMasterCode.c: 809: TXData[0] = 0x07;
  2945  032F  3007               	movlw	(07h)
  2946  0330  00E8               	movwf	(??_Encode_Message+0)+0
  2947  0331  0868               	movf	(??_Encode_Message+0)+0,w
  2948  0332  00B0               	movwf	(_TXData)
  2949                           	line	810
  2950                           ;CoachMasterCode.c: 810: TXData[1] = TAGINFO;
  2951  0333  085C               	movf	(_TAGINFO),w
  2952  0334  00E8               	movwf	(??_Encode_Message+0)+0
  2953  0335  0868               	movf	(??_Encode_Message+0)+0,w
  2954  0336  00B1               	movwf	0+(_TXData)+01h
  2955                           	line	811
  2956                           	
  2957  0337                     l3968:	
  2958                           ;CoachMasterCode.c: 811: TXData[2] = 0;
  2959  0337  01B2               	clrf	0+(_TXData)+02h
  2960                           	line	812
  2961                           	
  2962  0338                     l3970:	
  2963                           ;CoachMasterCode.c: 812: TXData[3] = 0;
  2964  0338  01B3               	clrf	0+(_TXData)+03h
  2965                           	line	813
  2966                           	
  2967  0339                     l3972:	
  2968                           ;CoachMasterCode.c: 813: TXData[4] = 0;
  2969  0339  01B4               	clrf	0+(_TXData)+04h
  2970                           	line	814
  2971                           	
  2972  033A                     l3974:	
  2973                           ;CoachMasterCode.c: 814: TXData[5] = 0;
  2974  033A  01B5               	clrf	0+(_TXData)+05h
  2975                           	line	815
  2976                           ;CoachMasterCode.c: 815: Length = 2;
  2977  033B  3002               	movlw	(02h)
  2978  033C  00E8               	movwf	(??_Encode_Message+0)+0
  2979  033D  0868               	movf	(??_Encode_Message+0)+0,w
  2980  033E  00EA               	movwf	(Encode_Message@Length)
  2981                           	line	819
  2982                           ;CoachMasterCode.c: 818: }
  2983                           ;CoachMasterCode.c: 819: break;
  2984  033F  2BA7               	goto	l4032
  2985                           	line	821
  2986                           ;CoachMasterCode.c: 821: case 3:
  2987                           	
  2988  0340                     l1136:	
  2989                           	line	824
  2990                           	
  2991  0340                     l3976:	
  2992                           ;CoachMasterCode.c: 822: {
  2993                           ;CoachMasterCode.c: 824: TXData[0] = 0x06;
  2994  0340  3006               	movlw	(06h)
  2995  0341  00E8               	movwf	(??_Encode_Message+0)+0
  2996  0342  0868               	movf	(??_Encode_Message+0)+0,w
  2997  0343  00B0               	movwf	(_TXData)
  2998                           	line	825
  2999                           ;CoachMasterCode.c: 825: TXData[1] = SDATA;
  3000  0344  085A               	movf	(_SDATA),w
  3001  0345  00E8               	movwf	(??_Encode_Message+0)+0
  3002  0346  0868               	movf	(??_Encode_Message+0)+0,w
  3003  0347  00B1               	movwf	0+(_TXData)+01h
  3004                           	line	826
  3005                           	
  3006  0348                     l3978:	
  3007                           ;CoachMasterCode.c: 826: TXData[2] = 0;
  3008  0348  01B2               	clrf	0+(_TXData)+02h
  3009                           	line	827
  3010                           	
  3011  0349                     l3980:	
  3012                           ;CoachMasterCode.c: 827: TXData[3] = 0;
  3013  0349  01B3               	clrf	0+(_TXData)+03h
  3014                           	line	828
  3015                           	
  3016  034A                     l3982:	
  3017                           ;CoachMasterCode.c: 828: TXData[4] = 0;
  3018  034A  01B4               	clrf	0+(_TXData)+04h
  3019                           	line	829
  3020                           	
  3021  034B                     l3984:	
  3022                           ;CoachMasterCode.c: 829: TXData[5] = 0;
  3023  034B  01B5               	clrf	0+(_TXData)+05h
  3024                           	line	830
  3025                           ;CoachMasterCode.c: 830: Length = 2;
  3026  034C  3002               	movlw	(02h)
  3027  034D  00E8               	movwf	(??_Encode_Message+0)+0
  3028  034E  0868               	movf	(??_Encode_Message+0)+0,w
  3029  034F  00EA               	movwf	(Encode_Message@Length)
  3030                           	line	833
  3031                           ;CoachMasterCode.c: 832: }
  3032                           ;CoachMasterCode.c: 833: break;
  3033  0350  2BA7               	goto	l4032
  3034                           	line	835
  3035                           ;CoachMasterCode.c: 835: case 4:
  3036                           	
  3037  0351                     l1137:	
  3038                           	line	838
  3039                           	
  3040  0351                     l3986:	
  3041                           ;CoachMasterCode.c: 836: {
  3042                           ;CoachMasterCode.c: 838: TXData[0] = 0x03;
  3043  0351  3003               	movlw	(03h)
  3044  0352  00E8               	movwf	(??_Encode_Message+0)+0
  3045  0353  0868               	movf	(??_Encode_Message+0)+0,w
  3046  0354  00B0               	movwf	(_TXData)
  3047                           	line	839
  3048                           ;CoachMasterCode.c: 839: TXData[1] = PAIRDATA;
  3049  0355  0858               	movf	(_PAIRDATA),w
  3050  0356  00E8               	movwf	(??_Encode_Message+0)+0
  3051  0357  0868               	movf	(??_Encode_Message+0)+0,w
  3052  0358  00B1               	movwf	0+(_TXData)+01h
  3053                           	line	840
  3054                           	
  3055  0359                     l3988:	
  3056                           ;CoachMasterCode.c: 840: TXData[2] = 0;
  3057  0359  01B2               	clrf	0+(_TXData)+02h
  3058                           	line	841
  3059                           	
  3060  035A                     l3990:	
  3061                           ;CoachMasterCode.c: 841: TXData[3] = 0;
  3062  035A  01B3               	clrf	0+(_TXData)+03h
  3063                           	line	842
  3064                           	
  3065  035B                     l3992:	
  3066                           ;CoachMasterCode.c: 842: TXData[4] = 0;
  3067  035B  01B4               	clrf	0+(_TXData)+04h
  3068                           	line	843
  3069                           	
  3070  035C                     l3994:	
  3071                           ;CoachMasterCode.c: 843: TXData[5] = 0;
  3072  035C  01B5               	clrf	0+(_TXData)+05h
  3073                           	line	844
  3074                           ;CoachMasterCode.c: 844: Length = 2;
  3075  035D  3002               	movlw	(02h)
  3076  035E  00E8               	movwf	(??_Encode_Message+0)+0
  3077  035F  0868               	movf	(??_Encode_Message+0)+0,w
  3078  0360  00EA               	movwf	(Encode_Message@Length)
  3079                           	line	846
  3080                           	
  3081  0361                     l3996:	
  3082                           ;CoachMasterCode.c: 846: X_AddrMSB = 0xff;
  3083  0361  01DF               	clrf	(_X_AddrMSB)
  3084  0362  03DF               	decf	(_X_AddrMSB),f
  3085                           	line	847
  3086                           	
  3087  0363                     l3998:	
  3088                           ;CoachMasterCode.c: 847: X_AddrLSB = 0xff;
  3089  0363  01DE               	clrf	(_X_AddrLSB)
  3090  0364  03DE               	decf	(_X_AddrLSB),f
  3091                           	line	849
  3092                           ;CoachMasterCode.c: 848: }
  3093                           ;CoachMasterCode.c: 849: break;
  3094  0365  2BA7               	goto	l4032
  3095                           	line	852
  3096                           ;CoachMasterCode.c: 852: case 5:
  3097                           	
  3098  0366                     l1138:	
  3099                           	line	855
  3100                           	
  3101  0366                     l4000:	
  3102                           ;CoachMasterCode.c: 853: {
  3103                           ;CoachMasterCode.c: 855: TXData[0] = 0x05;
  3104  0366  3005               	movlw	(05h)
  3105  0367  00E8               	movwf	(??_Encode_Message+0)+0
  3106  0368  0868               	movf	(??_Encode_Message+0)+0,w
  3107  0369  00B0               	movwf	(_TXData)
  3108                           	line	856
  3109                           ;CoachMasterCode.c: 856: TXData[1] = RESPDATA;
  3110  036A  0859               	movf	(_RESPDATA),w
  3111  036B  00E8               	movwf	(??_Encode_Message+0)+0
  3112  036C  0868               	movf	(??_Encode_Message+0)+0,w
  3113  036D  00B1               	movwf	0+(_TXData)+01h
  3114                           	line	857
  3115                           	
  3116  036E                     l4002:	
  3117                           ;CoachMasterCode.c: 857: TXData[2] = 0;
  3118  036E  01B2               	clrf	0+(_TXData)+02h
  3119                           	line	858
  3120                           	
  3121  036F                     l4004:	
  3122                           ;CoachMasterCode.c: 858: TXData[3] = 0;
  3123  036F  01B3               	clrf	0+(_TXData)+03h
  3124                           	line	859
  3125                           	
  3126  0370                     l4006:	
  3127                           ;CoachMasterCode.c: 859: TXData[4] = 0;
  3128  0370  01B4               	clrf	0+(_TXData)+04h
  3129                           	line	860
  3130                           	
  3131  0371                     l4008:	
  3132                           ;CoachMasterCode.c: 860: TXData[5] = 0;
  3133  0371  01B5               	clrf	0+(_TXData)+05h
  3134                           	line	861
  3135                           ;CoachMasterCode.c: 861: Length = 2;
  3136  0372  3002               	movlw	(02h)
  3137  0373  00E8               	movwf	(??_Encode_Message+0)+0
  3138  0374  0868               	movf	(??_Encode_Message+0)+0,w
  3139  0375  00EA               	movwf	(Encode_Message@Length)
  3140                           	line	864
  3141                           ;CoachMasterCode.c: 863: }
  3142                           ;CoachMasterCode.c: 864: break;
  3143  0376  2BA7               	goto	l4032
  3144                           	line	866
  3145                           ;CoachMasterCode.c: 866: case 6:
  3146                           	
  3147  0377                     l1139:	
  3148                           	line	869
  3149                           	
  3150  0377                     l4010:	
  3151                           ;CoachMasterCode.c: 867: {
  3152                           ;CoachMasterCode.c: 869: TXData[0] = 0x01;
  3153  0377  01B0               	clrf	(_TXData)
  3154  0378  1403               	bsf	status,0
  3155  0379  0DB0               	rlf	(_TXData),f
  3156                           	line	870
  3157                           	
  3158  037A                     l4012:	
  3159                           ;CoachMasterCode.c: 870: TXData[1] = SPD;
  3160  037A  085B               	movf	(_SPD),w
  3161  037B  00E8               	movwf	(??_Encode_Message+0)+0
  3162  037C  0868               	movf	(??_Encode_Message+0)+0,w
  3163  037D  00B1               	movwf	0+(_TXData)+01h
  3164                           	line	871
  3165                           	
  3166  037E                     l4014:	
  3167                           ;CoachMasterCode.c: 871: TXData[2] = DIR;
  3168  037E  0856               	movf	(_DIR),w
  3169  037F  00E8               	movwf	(??_Encode_Message+0)+0
  3170  0380  0868               	movf	(??_Encode_Message+0)+0,w
  3171  0381  00B2               	movwf	0+(_TXData)+02h
  3172                           	line	872
  3173                           	
  3174  0382                     l4016:	
  3175                           ;CoachMasterCode.c: 872: TXData[3] = AUX;
  3176  0382  0854               	movf	(_AUX),w
  3177  0383  00E8               	movwf	(??_Encode_Message+0)+0
  3178  0384  0868               	movf	(??_Encode_Message+0)+0,w
  3179  0385  00B3               	movwf	0+(_TXData)+03h
  3180                           	line	873
  3181                           	
  3182  0386                     l4018:	
  3183                           ;CoachMasterCode.c: 873: TXData[4] = WHIM;
  3184  0386  084F               	movf	(_WHIM),w
  3185  0387  00E8               	movwf	(??_Encode_Message+0)+0
  3186  0388  0868               	movf	(??_Encode_Message+0)+0,w
  3187  0389  00B4               	movwf	0+(_TXData)+04h
  3188                           	line	874
  3189                           	
  3190  038A                     l4020:	
  3191                           ;CoachMasterCode.c: 874: TXData[5] = TRANS;
  3192  038A  084E               	movf	(_TRANS),w
  3193  038B  00E8               	movwf	(??_Encode_Message+0)+0
  3194  038C  0868               	movf	(??_Encode_Message+0)+0,w
  3195  038D  00B5               	movwf	0+(_TXData)+05h
  3196                           	line	875
  3197                           	
  3198  038E                     l4022:	
  3199                           ;CoachMasterCode.c: 875: Length = 6;
  3200  038E  3006               	movlw	(06h)
  3201  038F  00E8               	movwf	(??_Encode_Message+0)+0
  3202  0390  0868               	movf	(??_Encode_Message+0)+0,w
  3203  0391  00EA               	movwf	(Encode_Message@Length)
  3204                           	line	876
  3205                           	
  3206  0392                     l4024:	
  3207                           ;CoachMasterCode.c: 876: SendKick = 0;
  3208  0392  01CC               	clrf	(_SendKick)
  3209                           	line	877
  3210                           	
  3211  0393                     l4026:	
  3212                           ;CoachMasterCode.c: 877: SendWhimsy = 0;
  3213  0393  01CD               	clrf	(_SendWhimsy)
  3214                           	line	878
  3215                           	
  3216  0394                     l4028:	
  3217                           ;CoachMasterCode.c: 878: PORTC &= ~0x00000008;
  3218  0394  30F7               	movlw	(0F7h)
  3219  0395  00E8               	movwf	(??_Encode_Message+0)+0
  3220  0396  0868               	movf	(??_Encode_Message+0)+0,w
  3221  0397  0587               	andwf	(7),f	;volatile
  3222                           	line	880
  3223                           ;CoachMasterCode.c: 879: }
  3224                           ;CoachMasterCode.c: 880: break;
  3225  0398  2BA7               	goto	l4032
  3226                           	line	882
  3227                           ;CoachMasterCode.c: 882: default:
  3228                           	
  3229  0399                     l1140:	
  3230                           	line	883
  3231                           ;CoachMasterCode.c: 883: Length = 0;
  3232  0399  01EA               	clrf	(Encode_Message@Length)
  3233                           	line	885
  3234                           ;CoachMasterCode.c: 885: }
  3235  039A  2BA7               	goto	l4032
  3236                           	line	774
  3237                           	
  3238  039B                     l1131:	
  3239                           	
  3240  039B                     l4030:	
  3241  039B  0869               	movf	(Encode_Message@Type),w
  3242                           	; Switch size 1, requested type "space"
  3243                           ; Number of cases is 7, Range of values is 0 to 6
  3244                           ; switch strategies available:
  3245                           ; Name         Instructions Cycles
  3246                           ; direct_byte           21     7 (fixed)
  3247                           ; simple_byte           22    12 (average)
  3248                           ; jumptable            260     6 (fixed)
  3249                           ; rangetable            11     6 (fixed)
  3250                           ; spacedrange           20     9 (fixed)
  3251                           ; locatedrange           7     3 (fixed)
  3252                           ;	Chosen strategy is direct_byte
  3253                           
  3254  039C  0084               	movwf fsr
  3255  039D  3007               	movlw	7
  3256  039E  0204               	subwf	fsr,w
  3257  039F  1803               skipnc
  3258  03A0  2B99               goto l1140
  3259  03A1  3004               movlw high(S4726)
  3260  03A2  008A               movwf pclath
  3261  03A3  1003               	clrc
  3262  03A4  0D04               	rlf fsr,w
  3263  03A5  3EEA               	addlw low(S4726)
  3264  03A6  0082               	movwf pc
  3265                           psect	swtext3,local,class=CONST,delta=2
  3266                           global __pswtext3
  3267  04EA                     __pswtext3:
  3268  04EA                     S4726:
  3269  04EA  118A  2B11         	ljmp	l3942
  3270  04EC  118A  2B1E         	ljmp	l3956
  3271  04EE  118A  2B2F         	ljmp	l3966
  3272  04F0  118A  2B40         	ljmp	l3976
  3273  04F2  118A  2B51         	ljmp	l3986
  3274  04F4  118A  2B66         	ljmp	l4000
  3275  04F6  118A  2B77         	ljmp	l4010
  3276                           psect	text430
  3277                           
  3278                           	line	885
  3279                           	
  3280  03A7                     l1133:	
  3281                           	line	886
  3282                           	
  3283  03A7                     l4032:	
  3284                           ;CoachMasterCode.c: 886: return Length;
  3285  03A7  086A               	movf	(Encode_Message@Length),w
  3286  03A8  2BA9               	goto	l1141
  3287                           	
  3288  03A9                     l4034:	
  3289                           	line	888
  3290                           	
  3291  03A9                     l1141:	
  3292  03A9  0008               	return
  3293                           	opt stack 0
  3294                           GLOBAL	__end_of_Encode_Message
  3295  03AA                     	__end_of_Encode_Message:
  3296 ;; =============== function _Encode_Message ends ============
  3297                           
  3298                           	signat	_Encode_Message,4217
  3299                           	global	_InitInterrupts
  3300                           psect	text431,local,class=CODE,delta=2
  3301                           global __ptext431
  3302  054F                     __ptext431:
  3303                           
  3304 ;; *************** function _InitInterrupts *****************
  3305 ;; Defined at:
  3306 ;;		line 643 in file "U:\_218c Teams\BringItOn\218C Project - World Cup\COACH CODE WE ARE USING\MasterCoach\MasterCoach\
       CoachMasterCode.c"
  3307 ;; Parameters:    Size  Location     Type
  3308 ;;		None
  3309 ;; Auto vars:     Size  Location     Type
  3310 ;;		None
  3311 ;; Return value:  Size  Location     Type
  3312 ;;		None               void
  3313 ;; Registers used:
  3314 ;;		wreg, status,2
  3315 ;; Tracked objects:
  3316 ;;		On entry : 0/0
  3317 ;;		On exit  : 0/0
  3318 ;;		Unchanged: 0/0
  3319 ;; Data sizes:     COMMON   BANK0   BANK1   BANK2
  3320 ;;      Params:         0       0       0       0
  3321 ;;      Locals:         0       0       0       0
  3322 ;;      Temps:          0       0       0       0
  3323 ;;      Totals:         0       0       0       0
  3324 ;;Total ram usage:        0 bytes
  3325 ;; Hardware stack levels used:    1
  3326 ;; Hardware stack levels required when called:    2
  3327 ;; This function calls:
  3328 ;;		Nothing
  3329 ;; This function is called by:
  3330 ;;		_main
  3331 ;; This function uses a non-reentrant model
  3332 ;;
  3333                           psect	text431
  3334                           	file	"U:\_218c Teams\BringItOn\218C Project - World Cup\COACH CODE WE ARE USING\MasterC
                                 oach\MasterCoach\CoachMasterCode.c"
  3335                           	line	643
  3336                           	global	__size_of_InitInterrupts
  3337  000F                     	__size_of_InitInterrupts	equ	__end_of_InitInterrupts-_InitInterrupts
  3338                           	
  3339  054F                     _InitInterrupts:	
  3340                           	opt	stack 5
  3341                           ; Regs used in _InitInterrupts: [wreg+status,2]
  3342                           	line	646
  3343                           	
  3344  054F                     l4462:	
  3345                           ;CoachMasterCode.c: 646: INTCON = 0b11001000;
  3346  054F  30C8               	movlw	(0C8h)
  3347  0550  008B               	movwf	(11)	;volatile
  3348                           	line	647
  3349                           	
  3350  0551                     l4464:	
  3351                           ;CoachMasterCode.c: 647: RCIE = 1;
  3352  0551  1683               	bsf	status, 5	;RP0=1, select bank1
  3353  0552  1303               	bcf	status, 6	;RP1=0, select bank1
  3354  0553  168C               	bsf	(1125/8)^080h,(1125)&7
  3355                           	line	648
  3356                           	
  3357  0554                     l4466:	
  3358                           ;CoachMasterCode.c: 648: TMR2IE = 1;
  3359  0554  148C               	bsf	(1121/8)^080h,(1121)&7
  3360                           	line	649
  3361                           	
  3362  0555                     l4468:	
  3363                           ;CoachMasterCode.c: 649: SSPIE = 1;
  3364  0555  158C               	bsf	(1123/8)^080h,(1123)&7
  3365                           	line	650
  3366                           	
  3367  0556                     l4470:	
  3368                           ;CoachMasterCode.c: 650: PIR1 = 0;
  3369  0556  1283               	bcf	status, 5	;RP0=0, select bank0
  3370  0557  1303               	bcf	status, 6	;RP1=0, select bank0
  3371  0558  018C               	clrf	(12)	;volatile
  3372                           	line	652
  3373                           	
  3374  0559                     l4472:	
  3375                           ;CoachMasterCode.c: 652: IOCA = (0x00000001|0x00000002|0x00000004);
  3376  0559  3007               	movlw	(07h)
  3377  055A  1683               	bsf	status, 5	;RP0=1, select bank1
  3378  055B  1303               	bcf	status, 6	;RP1=0, select bank1
  3379  055C  0096               	movwf	(150)^080h	;volatile
  3380                           	line	653
  3381                           	
  3382  055D                     l1106:	
  3383  055D  0008               	return
  3384                           	opt stack 0
  3385                           GLOBAL	__end_of_InitInterrupts
  3386  055E                     	__end_of_InitInterrupts:
  3387 ;; =============== function _InitInterrupts ends ============
  3388                           
  3389                           	signat	_InitInterrupts,88
  3390                           	global	_InitComm
  3391                           psect	text432,local,class=CODE,delta=2
  3392                           global __ptext432
  3393  042C                     __ptext432:
  3394                           
  3395 ;; *************** function _InitComm *****************
  3396 ;; Defined at:
  3397 ;;		line 657 in file "U:\_218c Teams\BringItOn\218C Project - World Cup\COACH CODE WE ARE USING\MasterCoach\MasterCoach\
       CoachMasterCode.c"
  3398 ;; Parameters:    Size  Location     Type
  3399 ;;		None
  3400 ;; Auto vars:     Size  Location     Type
  3401 ;;		None
  3402 ;; Return value:  Size  Location     Type
  3403 ;;		None               void
  3404 ;; Registers used:
  3405 ;;		wreg, status,2, status,0
  3406 ;; Tracked objects:
  3407 ;;		On entry : 0/0
  3408 ;;		On exit  : 0/0
  3409 ;;		Unchanged: 0/0
  3410 ;; Data sizes:     COMMON   BANK0   BANK1   BANK2
  3411 ;;      Params:         0       0       0       0
  3412 ;;      Locals:         0       0       0       0
  3413 ;;      Temps:          0       1       0       0
  3414 ;;      Totals:         0       1       0       0
  3415 ;;Total ram usage:        1 bytes
  3416 ;; Hardware stack levels used:    1
  3417 ;; Hardware stack levels required when called:    2
  3418 ;; This function calls:
  3419 ;;		Nothing
  3420 ;; This function is called by:
  3421 ;;		_main
  3422 ;; This function uses a non-reentrant model
  3423 ;;
  3424                           psect	text432
  3425                           	file	"U:\_218c Teams\BringItOn\218C Project - World Cup\COACH CODE WE ARE USING\MasterC
                                 oach\MasterCoach\CoachMasterCode.c"
  3426                           	line	657
  3427                           	global	__size_of_InitComm
  3428  0035                     	__size_of_InitComm	equ	__end_of_InitComm-_InitComm
  3429                           	
  3430  042C                     _InitComm:	
  3431                           	opt	stack 5
  3432                           ; Regs used in _InitComm: [wreg+status,2+status,0]
  3433                           	line	659
  3434                           	
  3435  042C                     l3866:	
  3436                           ;CoachMasterCode.c: 659: SPBRG = 129;
  3437  042C  3081               	movlw	(081h)
  3438  042D  1683               	bsf	status, 5	;RP0=1, select bank1
  3439  042E  1303               	bcf	status, 6	;RP1=0, select bank1
  3440  042F  0099               	movwf	(153)^080h	;volatile
  3441                           	line	660
  3442                           	
  3443  0430                     l3868:	
  3444                           ;CoachMasterCode.c: 660: SPBRGH = 0;
  3445  0430  019A               	clrf	(154)^080h	;volatile
  3446                           	line	661
  3447                           	
  3448  0431                     l3870:	
  3449                           ;CoachMasterCode.c: 661: TXSTA = 0b00100100;
  3450  0431  3024               	movlw	(024h)
  3451  0432  0098               	movwf	(152)^080h	;volatile
  3452                           	line	662
  3453                           	
  3454  0433                     l3872:	
  3455                           ;CoachMasterCode.c: 662: RCSTA = 0b10010000;
  3456  0433  3090               	movlw	(090h)
  3457  0434  1283               	bcf	status, 5	;RP0=0, select bank0
  3458  0435  1303               	bcf	status, 6	;RP1=0, select bank0
  3459  0436  0098               	movwf	(24)	;volatile
  3460                           	line	666
  3461                           	
  3462  0437                     l3874:	
  3463                           ;CoachMasterCode.c: 666: SSPSTAT = 0;
  3464  0437  1683               	bsf	status, 5	;RP0=1, select bank1
  3465  0438  1303               	bcf	status, 6	;RP1=0, select bank1
  3466  0439  0194               	clrf	(148)^080h	;volatile
  3467                           	line	667
  3468                           	
  3469  043A                     l3876:	
  3470                           ;CoachMasterCode.c: 667: WCOL = 0;
  3471  043A  1283               	bcf	status, 5	;RP0=0, select bank0
  3472  043B  1303               	bcf	status, 6	;RP1=0, select bank0
  3473  043C  1394               	bcf	(167/8),(167)&7
  3474                           	line	668
  3475                           	
  3476  043D                     l3878:	
  3477                           ;CoachMasterCode.c: 668: SSPOV = 0;
  3478  043D  1314               	bcf	(166/8),(166)&7
  3479                           	line	669
  3480                           	
  3481  043E                     l3880:	
  3482                           ;CoachMasterCode.c: 669: SSPEN = 1;
  3483  043E  1694               	bsf	(165/8),(165)&7
  3484                           	line	670
  3485                           	
  3486  043F                     l3882:	
  3487                           ;CoachMasterCode.c: 670: CKP = 1;
  3488  043F  1614               	bsf	(164/8),(164)&7
  3489                           	line	671
  3490                           	
  3491  0440                     l3884:	
  3492                           ;CoachMasterCode.c: 671: SSPM3 = 0;
  3493  0440  1194               	bcf	(163/8),(163)&7
  3494                           	line	672
  3495                           	
  3496  0441                     l3886:	
  3497                           ;CoachMasterCode.c: 672: SSPM2 = 0;
  3498  0441  1114               	bcf	(162/8),(162)&7
  3499                           	line	673
  3500                           	
  3501  0442                     l3888:	
  3502                           ;CoachMasterCode.c: 673: SSPM1 = 1;
  3503  0442  1494               	bsf	(161/8),(161)&7
  3504                           	line	674
  3505                           	
  3506  0443                     l3890:	
  3507                           ;CoachMasterCode.c: 674: SSPM0 = 1;
  3508  0443  1414               	bsf	(160/8),(160)&7
  3509                           	line	676
  3510                           	
  3511  0444                     l3892:	
  3512                           ;CoachMasterCode.c: 676: PORTC_Copy&=(~0x00000040);
  3513  0444  30BF               	movlw	(0BFh)
  3514  0445  00E8               	movwf	(??_InitComm+0)+0
  3515  0446  0868               	movf	(??_InitComm+0)+0,w
  3516  0447  05BE               	andwf	(_PORTC_Copy),f
  3517                           	line	677
  3518                           	
  3519  0448                     l3894:	
  3520                           ;CoachMasterCode.c: 677: PORTC = PORTC_Copy;
  3521  0448  083E               	movf	(_PORTC_Copy),w
  3522  0449  0087               	movwf	(7)	;volatile
  3523                           	line	679
  3524                           	
  3525  044A                     l3896:	
  3526                           ;CoachMasterCode.c: 679: BytesOut[0] = 0x37;
  3527  044A  3037               	movlw	(037h)
  3528  044B  00E8               	movwf	(??_InitComm+0)+0
  3529  044C  0868               	movf	(??_InitComm+0)+0,w
  3530  044D  00A8               	movwf	(_BytesOut)
  3531                           	line	680
  3532                           	
  3533  044E                     l3898:	
  3534                           ;CoachMasterCode.c: 680: BytesOut[1] = SDATA;
  3535  044E  085A               	movf	(_SDATA),w
  3536  044F  00E8               	movwf	(??_InitComm+0)+0
  3537  0450  0868               	movf	(??_InitComm+0)+0,w
  3538  0451  00A9               	movwf	0+(_BytesOut)+01h
  3539                           	line	681
  3540                           	
  3541  0452                     l3900:	
  3542                           ;CoachMasterCode.c: 681: BytesOut[2] = 0x00;
  3543  0452  01AA               	clrf	0+(_BytesOut)+02h
  3544                           	line	682
  3545                           	
  3546  0453                     l3902:	
  3547                           ;CoachMasterCode.c: 682: BytesOut[3] = 0x00;
  3548  0453  01AB               	clrf	0+(_BytesOut)+03h
  3549                           	line	683
  3550                           	
  3551  0454                     l3904:	
  3552                           ;CoachMasterCode.c: 683: BytesOut[4] = 0x00;
  3553  0454  01AC               	clrf	0+(_BytesOut)+04h
  3554                           	line	684
  3555                           	
  3556  0455                     l3906:	
  3557                           ;CoachMasterCode.c: 684: BytesOut[5] = 0x00;
  3558  0455  01AD               	clrf	0+(_BytesOut)+05h
  3559                           	line	685
  3560                           	
  3561  0456                     l3908:	
  3562                           ;CoachMasterCode.c: 685: BytesOut[6] = 0x00;
  3563  0456  01AE               	clrf	0+(_BytesOut)+06h
  3564                           	line	686
  3565                           	
  3566  0457                     l3910:	
  3567                           ;CoachMasterCode.c: 686: BytesOut[7] = 0x00;
  3568  0457  01AF               	clrf	0+(_BytesOut)+07h
  3569                           	line	688
  3570                           	
  3571  0458                     l3912:	
  3572                           ;CoachMasterCode.c: 688: BytesIn[0] = 0;
  3573  0458  01A0               	clrf	(_BytesIn)
  3574                           	line	689
  3575                           	
  3576  0459                     l3914:	
  3577                           ;CoachMasterCode.c: 689: BytesIn[1] = 0;
  3578  0459  01A1               	clrf	0+(_BytesIn)+01h
  3579                           	line	690
  3580                           	
  3581  045A                     l3916:	
  3582                           ;CoachMasterCode.c: 690: BytesIn[2] = 0;
  3583  045A  01A2               	clrf	0+(_BytesIn)+02h
  3584                           	line	691
  3585                           	
  3586  045B                     l3918:	
  3587                           ;CoachMasterCode.c: 691: BytesIn[3] = 0;
  3588  045B  01A3               	clrf	0+(_BytesIn)+03h
  3589                           	line	692
  3590                           	
  3591  045C                     l3920:	
  3592                           ;CoachMasterCode.c: 692: BytesIn[4] = 0;
  3593  045C  01A4               	clrf	0+(_BytesIn)+04h
  3594                           	line	693
  3595                           	
  3596  045D                     l3922:	
  3597                           ;CoachMasterCode.c: 693: BytesIn[5] = 0;
  3598  045D  01A5               	clrf	0+(_BytesIn)+05h
  3599                           	line	694
  3600                           	
  3601  045E                     l3924:	
  3602                           ;CoachMasterCode.c: 694: BytesIn[6] = 0;
  3603  045E  01A6               	clrf	0+(_BytesIn)+06h
  3604                           	line	695
  3605                           	
  3606  045F                     l3926:	
  3607                           ;CoachMasterCode.c: 695: BytesIn[7] = 0;
  3608  045F  01A7               	clrf	0+(_BytesIn)+07h
  3609                           	line	696
  3610                           	
  3611  0460                     l1109:	
  3612  0460  0008               	return
  3613                           	opt stack 0
  3614                           GLOBAL	__end_of_InitComm
  3615  0461                     	__end_of_InitComm:
  3616 ;; =============== function _InitComm ends ============
  3617                           
  3618                           	signat	_InitComm,88
  3619                           	global	_InitPorts
  3620                           psect	text433,local,class=CODE,delta=2
  3621                           global __ptext433
  3622  052C                     __ptext433:
  3623                           
  3624 ;; *************** function _InitPorts *****************
  3625 ;; Defined at:
  3626 ;;		line 628 in file "U:\_218c Teams\BringItOn\218C Project - World Cup\COACH CODE WE ARE USING\MasterCoach\MasterCoach\
       CoachMasterCode.c"
  3627 ;; Parameters:    Size  Location     Type
  3628 ;;		None
  3629 ;; Auto vars:     Size  Location     Type
  3630 ;;		None
  3631 ;; Return value:  Size  Location     Type
  3632 ;;		None               void
  3633 ;; Registers used:
  3634 ;;		wreg, status,2
  3635 ;; Tracked objects:
  3636 ;;		On entry : 0/0
  3637 ;;		On exit  : 0/0
  3638 ;;		Unchanged: 0/0
  3639 ;; Data sizes:     COMMON   BANK0   BANK1   BANK2
  3640 ;;      Params:         0       0       0       0
  3641 ;;      Locals:         0       0       0       0
  3642 ;;      Temps:          0       0       0       0
  3643 ;;      Totals:         0       0       0       0
  3644 ;;Total ram usage:        0 bytes
  3645 ;; Hardware stack levels used:    1
  3646 ;; Hardware stack levels required when called:    2
  3647 ;; This function calls:
  3648 ;;		Nothing
  3649 ;; This function is called by:
  3650 ;;		_main
  3651 ;; This function uses a non-reentrant model
  3652 ;;
  3653                           psect	text433
  3654                           	file	"U:\_218c Teams\BringItOn\218C Project - World Cup\COACH CODE WE ARE USING\MasterC
                                 oach\MasterCoach\CoachMasterCode.c"
  3655                           	line	628
  3656                           	global	__size_of_InitPorts
  3657  0012                     	__size_of_InitPorts	equ	__end_of_InitPorts-_InitPorts
  3658                           	
  3659  052C                     _InitPorts:	
  3660                           	opt	stack 5
  3661                           ; Regs used in _InitPorts: [wreg+status,2]
  3662                           	line	630
  3663                           	
  3664  052C                     l4454:	
  3665                           ;CoachMasterCode.c: 630: ANSEL = 0;
  3666  052C  1283               	bcf	status, 5	;RP0=0, select bank2
  3667  052D  1703               	bsf	status, 6	;RP1=1, select bank2
  3668  052E  019E               	clrf	(286)^0100h	;volatile
  3669                           	line	631
  3670                           ;CoachMasterCode.c: 631: ANSELH = 0;
  3671  052F  019F               	clrf	(287)^0100h	;volatile
  3672                           	line	632
  3673                           	
  3674  0530                     l4456:	
  3675                           ;CoachMasterCode.c: 632: TRISA = 0b00111111;
  3676  0530  303F               	movlw	(03Fh)
  3677  0531  1683               	bsf	status, 5	;RP0=1, select bank1
  3678  0532  1303               	bcf	status, 6	;RP1=0, select bank1
  3679  0533  0085               	movwf	(133)^080h	;volatile
  3680                           	line	633
  3681                           	
  3682  0534                     l4458:	
  3683                           ;CoachMasterCode.c: 633: TRISB = 0b00110000;
  3684  0534  3030               	movlw	(030h)
  3685  0535  0086               	movwf	(134)^080h	;volatile
  3686                           	line	634
  3687                           ;CoachMasterCode.c: 634: TRISC = 0b00000000;
  3688  0536  0187               	clrf	(135)^080h	;volatile
  3689                           	line	636
  3690                           ;CoachMasterCode.c: 636: PORTA = 0;
  3691  0537  1283               	bcf	status, 5	;RP0=0, select bank0
  3692  0538  1303               	bcf	status, 6	;RP1=0, select bank0
  3693  0539  0185               	clrf	(5)	;volatile
  3694                           	line	637
  3695                           ;CoachMasterCode.c: 637: PORTB = 0;
  3696  053A  0186               	clrf	(6)	;volatile
  3697                           	line	638
  3698                           	
  3699  053B                     l4460:	
  3700                           ;CoachMasterCode.c: 638: PORTC = 0x00000010;
  3701  053B  3010               	movlw	(010h)
  3702  053C  0087               	movwf	(7)	;volatile
  3703                           	line	639
  3704                           	
  3705  053D                     l1103:	
  3706  053D  0008               	return
  3707                           	opt stack 0
  3708                           GLOBAL	__end_of_InitPorts
  3709  053E                     	__end_of_InitPorts:
  3710 ;; =============== function _InitPorts ends ============
  3711                           
  3712                           	signat	_InitPorts,88
  3713                           	global	_InitTimers
  3714                           psect	text434,local,class=CODE,delta=2
  3715                           global __ptext434
  3716  055E                     __ptext434:
  3717                           
  3718 ;; *************** function _InitTimers *****************
  3719 ;; Defined at:
  3720 ;;		line 621 in file "U:\_218c Teams\BringItOn\218C Project - World Cup\COACH CODE WE ARE USING\MasterCoach\MasterCoach\
       CoachMasterCode.c"
  3721 ;; Parameters:    Size  Location     Type
  3722 ;;		None
  3723 ;; Auto vars:     Size  Location     Type
  3724 ;;		None
  3725 ;; Return value:  Size  Location     Type
  3726 ;;		None               void
  3727 ;; Registers used:
  3728 ;;		wreg
  3729 ;; Tracked objects:
  3730 ;;		On entry : 0/0
  3731 ;;		On exit  : 0/0
  3732 ;;		Unchanged: 0/0
  3733 ;; Data sizes:     COMMON   BANK0   BANK1   BANK2
  3734 ;;      Params:         0       0       0       0
  3735 ;;      Locals:         0       0       0       0
  3736 ;;      Temps:          0       0       0       0
  3737 ;;      Totals:         0       0       0       0
  3738 ;;Total ram usage:        0 bytes
  3739 ;; Hardware stack levels used:    1
  3740 ;; Hardware stack levels required when called:    2
  3741 ;; This function calls:
  3742 ;;		Nothing
  3743 ;; This function is called by:
  3744 ;;		_main
  3745 ;; This function uses a non-reentrant model
  3746 ;;
  3747                           psect	text434
  3748                           	file	"U:\_218c Teams\BringItOn\218C Project - World Cup\COACH CODE WE ARE USING\MasterC
                                 oach\MasterCoach\CoachMasterCode.c"
  3749                           	line	621
  3750                           	global	__size_of_InitTimers
  3751  0009                     	__size_of_InitTimers	equ	__end_of_InitTimers-_InitTimers
  3752                           	
  3753  055E                     _InitTimers:	
  3754                           	opt	stack 5
  3755                           ; Regs used in _InitTimers: [wreg]
  3756                           	line	622
  3757                           	
  3758  055E                     l4452:	
  3759                           ;CoachMasterCode.c: 622: T2CON = 0b01111110;
  3760  055E  307E               	movlw	(07Eh)
  3761  055F  1283               	bcf	status, 5	;RP0=0, select bank0
  3762  0560  1303               	bcf	status, 6	;RP1=0, select bank0
  3763  0561  0092               	movwf	(18)	;volatile
  3764                           	line	623
  3765                           ;CoachMasterCode.c: 623: PR2 = 50;
  3766  0562  3032               	movlw	(032h)
  3767  0563  1683               	bsf	status, 5	;RP0=1, select bank1
  3768  0564  1303               	bcf	status, 6	;RP1=0, select bank1
  3769  0565  0092               	movwf	(146)^080h	;volatile
  3770                           	line	624
  3771                           	
  3772  0566                     l1100:	
  3773  0566  0008               	return
  3774                           	opt stack 0
  3775                           GLOBAL	__end_of_InitTimers
  3776  0567                     	__end_of_InitTimers:
  3777 ;; =============== function _InitTimers ends ============
  3778                           
  3779                           	signat	_InitTimers,88
  3780                           	global	_ISR
  3781                           psect	text435,local,class=CODE,delta=2
  3782                           global __ptext435
  3783  024F                     __ptext435:
  3784                           
  3785 ;; *************** function _ISR *****************
  3786 ;; Defined at:
  3787 ;;		line 524 in file "U:\_218c Teams\BringItOn\218C Project - World Cup\COACH CODE WE ARE USING\MasterCoach\MasterCoach\
       CoachMasterCode.c"
  3788 ;; Parameters:    Size  Location     Type
  3789 ;;		None
  3790 ;; Auto vars:     Size  Location     Type
  3791 ;;		None
  3792 ;; Return value:  Size  Location     Type
  3793 ;;		None               void
  3794 ;; Registers used:
  3795 ;;		wreg, fsr0l, fsr0h, status,2, status,0, pclath, cstack
  3796 ;; Tracked objects:
  3797 ;;		On entry : 0/0
  3798 ;;		On exit  : 0/0
  3799 ;;		Unchanged: 0/0
  3800 ;; Data sizes:     COMMON   BANK0   BANK1   BANK2
  3801 ;;      Params:         0       0       0       0
  3802 ;;      Locals:         0       0       0       0
  3803 ;;      Temps:          5       0       0       0
  3804 ;;      Totals:         5       0       0       0
  3805 ;;Total ram usage:        5 bytes
  3806 ;; Hardware stack levels used:    1
  3807 ;; Hardware stack levels required when called:    1
  3808 ;; This function calls:
  3809 ;;		_Process_SPI
  3810 ;;		i1_XBee_State
  3811 ;; This function is called by:
  3812 ;;		Interrupt level 1
  3813 ;; This function uses a non-reentrant model
  3814 ;;
  3815                           psect	text435
  3816                           	file	"U:\_218c Teams\BringItOn\218C Project - World Cup\COACH CODE WE ARE USING\MasterC
                                 oach\MasterCoach\CoachMasterCode.c"
  3817                           	line	524
  3818                           	global	__size_of_ISR
  3819  00BD                     	__size_of_ISR	equ	__end_of_ISR-_ISR
  3820                           	
  3821  024F                     _ISR:	
  3822                           	opt	stack 5
  3823                           ; Regs used in _ISR: [wreg-fsr0h+status,2+status,0+pclath+cstack]
  3824                           psect	intentry,class=CODE,delta=2
  3825                           global __pintentry
  3826  0004                     __pintentry:
  3827                           global interrupt_function
  3828  0004                     interrupt_function:
  3829                           	global saved_w
  3830  007E                     	saved_w	set	btemp+0
  3831  0004  00FE               	movwf	saved_w
  3832  0005  0E03               	swapf	status,w
  3833  0006  00F3               	movwf	(??_ISR+1)
  3834  0007  0804               	movf	fsr0,w
  3835  0008  00F4               	movwf	(??_ISR+2)
  3836  0009  080A               	movf	pclath,w
  3837  000A  00F5               	movwf	(??_ISR+3)
  3838  000B  1283               	bcf	status, 5	;RP0=0, select bank0
  3839  000C  1303               	bcf	status, 6	;RP1=0, select bank0
  3840  000D  087F               	movf	btemp+1,w
  3841  000E  00F6               	movwf	(??_ISR+4)
  3842  000F  118A  2A4F         	ljmp	_ISR
  3843                           psect	text435
  3844                           	line	527
  3845                           	
  3846  024F                     i1l4088:	
  3847                           ;CoachMasterCode.c: 527: INTCON &= 0b00110111;
  3848  024F  3037               	movlw	(037h)
  3849  0250  00F2               	movwf	(??_ISR+0)+0
  3850  0251  0872               	movf	(??_ISR+0)+0,w
  3851  0252  058B               	andwf	(11),f	;volatile
  3852                           	line	529
  3853                           	
  3854  0253                     i1l4090:	
  3855                           ;CoachMasterCode.c: 529: if (RCIF)
  3856  0253  1E8C               	btfss	(101/8),(101)&7
  3857  0254  2A56               	goto	u269_21
  3858  0255  2A57               	goto	u269_20
  3859  0256                     u269_21:
  3860  0256  2A5F               	goto	i1l4096
  3861  0257                     u269_20:
  3862                           	line	531
  3863                           	
  3864  0257                     i1l4092:	
  3865                           ;CoachMasterCode.c: 530: {
  3866                           ;CoachMasterCode.c: 531: R_Transition = 1;
  3867  0257  01CA               	clrf	(_R_Transition)
  3868  0258  1403               	bsf	status,0
  3869  0259  0DCA               	rlf	(_R_Transition),f
  3870                           	line	532
  3871                           	
  3872  025A                     i1l4094:	
  3873                           ;CoachMasterCode.c: 532: ByteIn = RCREG;
  3874  025A  081A               	movf	(26),w	;volatile
  3875  025B  00F2               	movwf	(??_ISR+0)+0
  3876  025C  0872               	movf	(??_ISR+0)+0,w
  3877  025D  00B6               	movwf	(_ByteIn)	;volatile
  3878  025E  2A5F               	goto	i1l4096
  3879                           	line	534
  3880                           	
  3881  025F                     i1l1086:	
  3882                           	line	536
  3883                           	
  3884  025F                     i1l4096:	
  3885                           ;CoachMasterCode.c: 534: }
  3886                           ;CoachMasterCode.c: 536: if (SSPIF)
  3887  025F  1D8C               	btfss	(99/8),(99)&7
  3888  0260  2A62               	goto	u270_21
  3889  0261  2A63               	goto	u270_20
  3890  0262                     u270_21:
  3891  0262  2A99               	goto	i1l4122
  3892  0263                     u270_20:
  3893                           	line	539
  3894                           	
  3895  0263                     i1l4098:	
  3896                           ;CoachMasterCode.c: 537: {
  3897                           ;CoachMasterCode.c: 539: PORTC_Copy|=0x00000040;
  3898  0263  173E               	bsf	(_PORTC_Copy)+(6/8),(6)&7
  3899                           	line	540
  3900                           	
  3901  0264                     i1l4100:	
  3902                           ;CoachMasterCode.c: 540: PORTC = PORTC_Copy;
  3903  0264  083E               	movf	(_PORTC_Copy),w
  3904  0265  0087               	movwf	(7)	;volatile
  3905                           	line	541
  3906                           ;CoachMasterCode.c: 541: SPI_Var = SSPBUF;
  3907  0266  0813               	movf	(19),w	;volatile
  3908  0267  00F2               	movwf	(??_ISR+0)+0
  3909  0268  0872               	movf	(??_ISR+0)+0,w
  3910  0269  00FB               	movwf	(_SPI_Var)	;volatile
  3911                           	line	542
  3912                           ;CoachMasterCode.c: 542: if (SPI_Var==0x37)
  3913  026A  087B               	movf	(_SPI_Var),w
  3914  026B  3A37               	xorlw	037h
  3915  026C  1D03               	skipz
  3916  026D  2A6F               	goto	u271_21
  3917  026E  2A70               	goto	u271_20
  3918  026F                     u271_21:
  3919  026F  2A72               	goto	i1l4104
  3920  0270                     u271_20:
  3921                           	line	543
  3922                           	
  3923  0270                     i1l4102:	
  3924                           ;CoachMasterCode.c: 543: i=0;
  3925  0270  01D3               	clrf	(_i)
  3926  0271  2A72               	goto	i1l4104
  3927                           	
  3928  0272                     i1l1088:	
  3929                           	line	545
  3930                           	
  3931  0272                     i1l4104:	
  3932                           ;CoachMasterCode.c: 545: BytesIn[i] = SPI_Var;
  3933  0272  087B               	movf	(_SPI_Var),w
  3934  0273  00F2               	movwf	(??_ISR+0)+0
  3935  0274  0853               	movf	(_i),w
  3936  0275  3E20               	addlw	_BytesIn&0ffh
  3937  0276  0084               	movwf	fsr0
  3938  0277  0872               	movf	(??_ISR+0)+0,w
  3939  0278  1383               	bcf	status, 7	;select IRP bank0
  3940  0279  0080               	movwf	indf
  3941                           	line	547
  3942                           	
  3943  027A                     i1l4106:	
  3944                           ;CoachMasterCode.c: 547: i++;
  3945  027A  3001               	movlw	(01h)
  3946  027B  00F2               	movwf	(??_ISR+0)+0
  3947  027C  0872               	movf	(??_ISR+0)+0,w
  3948  027D  07D3               	addwf	(_i),f
  3949                           	line	549
  3950                           	
  3951  027E                     i1l4108:	
  3952                           ;CoachMasterCode.c: 549: if(i>=8)
  3953  027E  3008               	movlw	(08h)
  3954  027F  0253               	subwf	(_i),w
  3955  0280  1C03               	skipc
  3956  0281  2A83               	goto	u272_21
  3957  0282  2A84               	goto	u272_20
  3958  0283                     u272_21:
  3959  0283  2A89               	goto	i1l4114
  3960  0284                     u272_20:
  3961                           	line	551
  3962                           	
  3963  0284                     i1l4110:	
  3964                           ;CoachMasterCode.c: 550: {
  3965                           ;CoachMasterCode.c: 551: i=0;
  3966  0284  01D3               	clrf	(_i)
  3967                           	line	552
  3968                           	
  3969  0285                     i1l4112:	
  3970                           ;CoachMasterCode.c: 552: Process_SPI();
  3971  0285  118A  23F4  118A   	fcall	_Process_SPI
  3972  0288  2A89               	goto	i1l4114
  3973                           	line	553
  3974                           	
  3975  0289                     i1l1089:	
  3976                           	line	556
  3977                           	
  3978  0289                     i1l4114:	
  3979                           ;CoachMasterCode.c: 553: }
  3980                           ;CoachMasterCode.c: 556: PORTC_Copy&=(~0x00000040);
  3981  0289  30BF               	movlw	(0BFh)
  3982  028A  00F2               	movwf	(??_ISR+0)+0
  3983  028B  0872               	movf	(??_ISR+0)+0,w
  3984  028C  1283               	bcf	status, 5	;RP0=0, select bank0
  3985  028D  1303               	bcf	status, 6	;RP1=0, select bank0
  3986  028E  05BE               	andwf	(_PORTC_Copy),f
  3987                           	line	557
  3988                           	
  3989  028F                     i1l4116:	
  3990                           ;CoachMasterCode.c: 557: PORTC = PORTC_Copy;
  3991  028F  083E               	movf	(_PORTC_Copy),w
  3992  0290  0087               	movwf	(7)	;volatile
  3993                           	line	559
  3994                           	
  3995  0291                     i1l4118:	
  3996                           ;CoachMasterCode.c: 559: SSPBUF = BytesOut[i];
  3997  0291  0853               	movf	(_i),w
  3998  0292  3E28               	addlw	_BytesOut&0ffh
  3999  0293  0084               	movwf	fsr0
  4000  0294  1383               	bcf	status, 7	;select IRP bank0
  4001  0295  0800               	movf	indf,w
  4002  0296  0093               	movwf	(19)
  4003                           	line	560
  4004                           	
  4005  0297                     i1l4120:	
  4006                           ;CoachMasterCode.c: 560: SSPIF = 0;
  4007  0297  118C               	bcf	(99/8),(99)&7
  4008  0298  2A99               	goto	i1l4122
  4009                           	line	561
  4010                           	
  4011  0299                     i1l1087:	
  4012                           	line	563
  4013                           	
  4014  0299                     i1l4122:	
  4015                           ;CoachMasterCode.c: 561: }
  4016                           ;CoachMasterCode.c: 563: if (TMR2IF)
  4017  0299  1C8C               	btfss	(97/8),(97)&7
  4018  029A  2A9C               	goto	u273_21
  4019  029B  2A9D               	goto	u273_20
  4020  029C                     u273_21:
  4021  029C  2ACB               	goto	i1l4144
  4022  029D                     u273_20:
  4023                           	line	566
  4024                           	
  4025  029D                     i1l4124:	
  4026                           ;CoachMasterCode.c: 564: {
  4027                           ;CoachMasterCode.c: 566: TOCounter++;
  4028  029D  3001               	movlw	low(01h)
  4029  029E  07F7               	addwf	(_TOCounter),f
  4030  029F  1803               	skipnc
  4031  02A0  0AF8               	incf	(_TOCounter+1),f
  4032  02A1  3000               	movlw	high(01h)
  4033  02A2  07F8               	addwf	(_TOCounter+1),f
  4034                           	line	568
  4035                           ;CoachMasterCode.c: 568: if (TOCounter>=78)
  4036  02A3  3000               	movlw	high(04Eh)
  4037  02A4  0278               	subwf	(_TOCounter+1),w
  4038  02A5  304E               	movlw	low(04Eh)
  4039  02A6  1903               	skipnz
  4040  02A7  0277               	subwf	(_TOCounter),w
  4041  02A8  1C03               	skipc
  4042  02A9  2AAB               	goto	u274_21
  4043  02AA  2AAC               	goto	u274_20
  4044  02AB                     u274_21:
  4045  02AB  2AC7               	goto	i1l4142
  4046  02AC                     u274_20:
  4047                           	line	571
  4048                           	
  4049  02AC                     i1l4126:	
  4050                           ;CoachMasterCode.c: 569: {
  4051                           ;CoachMasterCode.c: 571: TOCounter = 0;
  4052  02AC  01F7               	clrf	(_TOCounter)
  4053  02AD  01F8               	clrf	(_TOCounter+1)
  4054                           	line	572
  4055                           	
  4056  02AE                     i1l4128:	
  4057                           ;CoachMasterCode.c: 572: X_Transition = 1;
  4058  02AE  01E7               	clrf	(_X_Transition)
  4059  02AF  1403               	bsf	status,0
  4060  02B0  0DE7               	rlf	(_X_Transition),f
  4061                           	line	573
  4062                           	
  4063  02B1                     i1l4130:	
  4064                           ;CoachMasterCode.c: 573: CurrentX_State = X_Idle_State;
  4065  02B1  01B9               	clrf	(_CurrentX_State)
  4066                           	line	574
  4067                           	
  4068  02B2                     i1l4132:	
  4069                           ;CoachMasterCode.c: 574: NextX_State = CurrentX_State;
  4070  02B2  0839               	movf	(_CurrentX_State),w
  4071  02B3  00F2               	movwf	(??_ISR+0)+0
  4072  02B4  0872               	movf	(??_ISR+0)+0,w
  4073  02B5  00BD               	movwf	(_NextX_State)
  4074                           	line	576
  4075                           	
  4076  02B6                     i1l4134:	
  4077                           ;CoachMasterCode.c: 576: LostCommCounter++;
  4078  02B6  3001               	movlw	(01h)
  4079  02B7  00F2               	movwf	(??_ISR+0)+0
  4080  02B8  0872               	movf	(??_ISR+0)+0,w
  4081  02B9  07BA               	addwf	(_LostCommCounter),f
  4082                           	line	577
  4083                           	
  4084  02BA                     i1l4136:	
  4085                           ;CoachMasterCode.c: 577: if (LostCommCounter>=25)
  4086  02BA  3019               	movlw	(019h)
  4087  02BB  023A               	subwf	(_LostCommCounter),w
  4088  02BC  1C03               	skipc
  4089  02BD  2ABF               	goto	u275_21
  4090  02BE  2AC0               	goto	u275_20
  4091  02BF                     u275_21:
  4092  02BF  2AC7               	goto	i1l4142
  4093  02C0                     u275_20:
  4094                           	line	579
  4095                           	
  4096  02C0                     i1l4138:	
  4097                           ;CoachMasterCode.c: 578: {
  4098                           ;CoachMasterCode.c: 579: LostCommCounter = 0;
  4099  02C0  01BA               	clrf	(_LostCommCounter)
  4100                           	line	581
  4101                           	
  4102  02C1                     i1l4140:	
  4103                           ;CoachMasterCode.c: 581: XBee_State(0);
  4104  02C1  3000               	movlw	(0)
  4105  02C2  118A  2461  118A   	fcall	i1_XBee_State
  4106  02C5  2AC7               	goto	i1l4142
  4107                           	line	583
  4108                           	
  4109  02C6                     i1l1092:	
  4110  02C6  2AC7               	goto	i1l4142
  4111                           	line	584
  4112                           	
  4113  02C7                     i1l1091:	
  4114                           	line	585
  4115                           	
  4116  02C7                     i1l4142:	
  4117                           ;CoachMasterCode.c: 583: }
  4118                           ;CoachMasterCode.c: 584: }
  4119                           ;CoachMasterCode.c: 585: TMR2IF = 0;
  4120  02C7  1283               	bcf	status, 5	;RP0=0, select bank0
  4121  02C8  1303               	bcf	status, 6	;RP1=0, select bank0
  4122  02C9  108C               	bcf	(97/8),(97)&7
  4123  02CA  2ACB               	goto	i1l4144
  4124                           	line	586
  4125                           	
  4126  02CB                     i1l1090:	
  4127                           	line	588
  4128                           	
  4129  02CB                     i1l4144:	
  4130                           ;CoachMasterCode.c: 586: }
  4131                           ;CoachMasterCode.c: 588: if (RABIF)
  4132  02CB  1C0B               	btfss	(88/8),(88)&7
  4133  02CC  2ACE               	goto	u276_21
  4134  02CD  2ACF               	goto	u276_20
  4135  02CE                     u276_21:
  4136  02CE  2AFA               	goto	i1l4166
  4137  02CF                     u276_20:
  4138                           	line	590
  4139                           	
  4140  02CF                     i1l4146:	
  4141                           ;CoachMasterCode.c: 589: {
  4142                           ;CoachMasterCode.c: 590: SwitchState = PORTA;
  4143  02CF  0805               	movf	(5),w	;volatile
  4144  02D0  00F2               	movwf	(??_ISR+0)+0
  4145  02D1  0872               	movf	(??_ISR+0)+0,w
  4146  02D2  00FC               	movwf	(_SwitchState)
  4147                           	line	591
  4148                           	
  4149  02D3                     i1l4148:	
  4150                           ;CoachMasterCode.c: 591: SwitchState &= SwitchMask;
  4151  02D3  087D               	movf	(_SwitchMask),w
  4152  02D4  00F2               	movwf	(??_ISR+0)+0
  4153  02D5  0872               	movf	(??_ISR+0)+0,w
  4154  02D6  05FC               	andwf	(_SwitchState),f
  4155                           	line	592
  4156                           	
  4157  02D7                     i1l4150:	
  4158                           ;CoachMasterCode.c: 592: if(SwitchState == 0b00000001)
  4159  02D7  087C               	movf	(_SwitchState),w
  4160  02D8  3A01               	xorlw	01h
  4161  02D9  1D03               	skipz
  4162  02DA  2ADC               	goto	u277_21
  4163  02DB  2ADD               	goto	u277_20
  4164  02DC                     u277_21:
  4165  02DC  2ADF               	goto	i1l4154
  4166  02DD                     u277_20:
  4167                           	line	594
  4168                           	
  4169  02DD                     i1l4152:	
  4170                           ;CoachMasterCode.c: 593: {
  4171                           ;CoachMasterCode.c: 594: CurrentType = 0;
  4172  02DD  01D5               	clrf	(_CurrentType)
  4173  02DE  2ADF               	goto	i1l4154
  4174                           	line	596
  4175                           	
  4176  02DF                     i1l1094:	
  4177                           	line	597
  4178                           	
  4179  02DF                     i1l4154:	
  4180                           ;CoachMasterCode.c: 596: }
  4181                           ;CoachMasterCode.c: 597: if(SwitchState == 0b00000010)
  4182  02DF  087C               	movf	(_SwitchState),w
  4183  02E0  3A02               	xorlw	02h
  4184  02E1  1D03               	skipz
  4185  02E2  2AE4               	goto	u278_21
  4186  02E3  2AE5               	goto	u278_20
  4187  02E4                     u278_21:
  4188  02E4  2AE9               	goto	i1l4158
  4189  02E5                     u278_20:
  4190                           	line	599
  4191                           	
  4192  02E5                     i1l4156:	
  4193                           ;CoachMasterCode.c: 598: {
  4194                           ;CoachMasterCode.c: 599: CurrentType = 1;
  4195  02E5  01D5               	clrf	(_CurrentType)
  4196  02E6  1403               	bsf	status,0
  4197  02E7  0DD5               	rlf	(_CurrentType),f
  4198  02E8  2AE9               	goto	i1l4158
  4199                           	line	600
  4200                           	
  4201  02E9                     i1l1095:	
  4202                           	line	601
  4203                           	
  4204  02E9                     i1l4158:	
  4205                           ;CoachMasterCode.c: 600: }
  4206                           ;CoachMasterCode.c: 601: if(SwitchState == 0b00000100)
  4207  02E9  087C               	movf	(_SwitchState),w
  4208  02EA  3A04               	xorlw	04h
  4209  02EB  1D03               	skipz
  4210  02EC  2AEE               	goto	u279_21
  4211  02ED  2AEF               	goto	u279_20
  4212  02EE                     u279_21:
  4213  02EE  2AF8               	goto	i1l4164
  4214  02EF                     u279_20:
  4215                           	line	604
  4216                           	
  4217  02EF                     i1l4160:	
  4218                           ;CoachMasterCode.c: 602: {
  4219                           ;CoachMasterCode.c: 604: CurrentType = 4;
  4220  02EF  3004               	movlw	(04h)
  4221  02F0  00F2               	movwf	(??_ISR+0)+0
  4222  02F1  0872               	movf	(??_ISR+0)+0,w
  4223  02F2  00D5               	movwf	(_CurrentType)
  4224                           	line	606
  4225                           	
  4226  02F3                     i1l4162:	
  4227                           ;CoachMasterCode.c: 606: XBee_State(1);
  4228  02F3  3001               	movlw	(01h)
  4229  02F4  118A  2461  118A   	fcall	i1_XBee_State
  4230  02F7  2AF8               	goto	i1l4164
  4231                           	line	609
  4232                           	
  4233  02F8                     i1l1096:	
  4234                           	line	610
  4235                           	
  4236  02F8                     i1l4164:	
  4237                           ;CoachMasterCode.c: 609: }
  4238                           ;CoachMasterCode.c: 610: RABIF = 0;
  4239  02F8  100B               	bcf	(88/8),(88)&7
  4240  02F9  2AFA               	goto	i1l4166
  4241                           	line	611
  4242                           	
  4243  02FA                     i1l1093:	
  4244                           	line	614
  4245                           	
  4246  02FA                     i1l4166:	
  4247                           ;CoachMasterCode.c: 611: }
  4248                           ;CoachMasterCode.c: 614: INTCON |= 0b11001000;
  4249  02FA  30C8               	movlw	(0C8h)
  4250  02FB  00F2               	movwf	(??_ISR+0)+0
  4251  02FC  0872               	movf	(??_ISR+0)+0,w
  4252  02FD  048B               	iorwf	(11),f	;volatile
  4253  02FE  2AFF               	goto	i1l1097
  4254                           	line	615
  4255                           	
  4256  02FF                     i1l4168:	
  4257                           	line	616
  4258                           ;CoachMasterCode.c: 615: return;
  4259                           	
  4260  02FF                     i1l1097:	
  4261  02FF  0876               	movf	(??_ISR+4),w
  4262  0300  1283               	bcf	status, 5	;RP0=0, select bank0
  4263  0301  1303               	bcf	status, 6	;RP1=0, select bank0
  4264  0302  00FF               	movwf	btemp+1
  4265  0303  0875               	movf	(??_ISR+3),w
  4266  0304  008A               	movwf	pclath
  4267  0305  0874               	movf	(??_ISR+2),w
  4268  0306  0084               	movwf	fsr0
  4269  0307  0E73               	swapf	(??_ISR+1)^0FFFFFF80h,w
  4270  0308  0083               	movwf	status
  4271  0309  0EFE               	swapf	saved_w,f
  4272  030A  0E7E               	swapf	saved_w,w
  4273  030B  0009               	retfie
  4274                           	opt stack 0
  4275                           GLOBAL	__end_of_ISR
  4276  030C                     	__end_of_ISR:
  4277 ;; =============== function _ISR ends ============
  4278                           
  4279                           	signat	_ISR,88
  4280                           	global	i1_XBee_State
  4281                           psect	text436,local,class=CODE,delta=2
  4282                           global __ptext436
  4283  0461                     __ptext436:
  4284                           
  4285 ;; *************** function i1_XBee_State *****************
  4286 ;; Defined at:
  4287 ;;		line 735 in file "U:\_218c Teams\BringItOn\218C Project - World Cup\COACH CODE WE ARE USING\MasterCoach\MasterCoach\
       CoachMasterCode.c"
  4288 ;; Parameters:    Size  Location     Type
  4289 ;;  XBee_State      1    wreg     unsigned char 
  4290 ;; Auto vars:     Size  Location     Type
  4291 ;;  XBee_State      1    1[COMMON] unsigned char 
  4292 ;; Return value:  Size  Location     Type
  4293 ;;		None               void
  4294 ;; Registers used:
  4295 ;;		wreg, status,2, status,0
  4296 ;; Tracked objects:
  4297 ;;		On entry : 0/0
  4298 ;;		On exit  : 0/0
  4299 ;;		Unchanged: 0/0
  4300 ;; Data sizes:     COMMON   BANK0   BANK1   BANK2
  4301 ;;      Params:         0       0       0       0
  4302 ;;      Locals:         1       0       0       0
  4303 ;;      Temps:          1       0       0       0
  4304 ;;      Totals:         2       0       0       0
  4305 ;;Total ram usage:        2 bytes
  4306 ;; Hardware stack levels used:    1
  4307 ;; This function calls:
  4308 ;;		Nothing
  4309 ;; This function is called by:
  4310 ;;		_ISR
  4311 ;; This function uses a non-reentrant model
  4312 ;;
  4313                           psect	text436
  4314                           	file	"U:\_218c Teams\BringItOn\218C Project - World Cup\COACH CODE WE ARE USING\MasterC
                                 oach\MasterCoach\CoachMasterCode.c"
  4315                           	line	735
  4316                           	global	__size_ofi1_XBee_State
  4317  0026                     	__size_ofi1_XBee_State	equ	__end_ofi1_XBee_State-i1_XBee_State
  4318                           	
  4319  0461                     i1_XBee_State:	
  4320                           	opt	stack 5
  4321                           ; Regs used in i1_XBee_State: [wreg+status,2+status,0]
  4322                           ;i1XBee_State@x stored from wreg
  4323  0461  00F1               	movwf	(i1XBee_State@x)
  4324                           	line	736
  4325                           	
  4326  0462                     i1l4184:	
  4327                           ;CoachMasterCode.c: 736: if(x)
  4328  0462  0871               	movf	(i1XBee_State@x),w
  4329  0463  1D03               	skipz
  4330  0464  2C66               	goto	u284_20
  4331  0465  2C76               	goto	i1l1126
  4332  0466                     u284_20:
  4333                           	line	738
  4334                           	
  4335  0466                     i1l4186:	
  4336                           ;CoachMasterCode.c: 737: {
  4337                           ;CoachMasterCode.c: 738: CommActive = 1;
  4338  0466  1283               	bcf	status, 5	;RP0=0, select bank0
  4339  0467  1303               	bcf	status, 6	;RP1=0, select bank0
  4340  0468  01B7               	clrf	(_CommActive)
  4341  0469  1403               	bsf	status,0
  4342  046A  0DB7               	rlf	(_CommActive),f
  4343                           	line	739
  4344                           	
  4345  046B                     i1l4188:	
  4346                           ;CoachMasterCode.c: 739: CurrentR_State = R_Idle_State;
  4347  046B  01B8               	clrf	(_CurrentR_State)
  4348                           	line	740
  4349                           	
  4350  046C                     i1l4190:	
  4351                           ;CoachMasterCode.c: 740: CurrentX_State = X_Idle_State;
  4352  046C  01B9               	clrf	(_CurrentX_State)
  4353                           	line	741
  4354                           	
  4355  046D                     i1l4192:	
  4356                           ;CoachMasterCode.c: 741: PORTC_Copy&=~0x00000001;
  4357  046D  30FE               	movlw	(0FEh)
  4358  046E  00F0               	movwf	(??i1_XBee_State+0)+0
  4359  046F  0870               	movf	(??i1_XBee_State+0)+0,w
  4360  0470  05BE               	andwf	(_PORTC_Copy),f
  4361                           	line	742
  4362                           	
  4363  0471                     i1l4194:	
  4364                           ;CoachMasterCode.c: 742: PORTC_Copy|=0x00000002;
  4365  0471  14BE               	bsf	(_PORTC_Copy)+(1/8),(1)&7
  4366                           	line	743
  4367                           	
  4368  0472                     i1l4196:	
  4369                           ;CoachMasterCode.c: 743: LostCommCounter = 0;
  4370  0472  01BA               	clrf	(_LostCommCounter)
  4371                           	line	744
  4372                           ;CoachMasterCode.c: 744: PORTC = PORTC_Copy;
  4373  0473  083E               	movf	(_PORTC_Copy),w
  4374  0474  0087               	movwf	(7)	;volatile
  4375                           	line	745
  4376                           ;CoachMasterCode.c: 745: }
  4377  0475  2C86               	goto	i1l1128
  4378                           	line	746
  4379                           	
  4380  0476                     i1l1126:	
  4381                           	line	748
  4382                           ;CoachMasterCode.c: 746: else
  4383                           ;CoachMasterCode.c: 747: {
  4384                           ;CoachMasterCode.c: 748: LostCommCounter = 0;
  4385  0476  1283               	bcf	status, 5	;RP0=0, select bank0
  4386  0477  1303               	bcf	status, 6	;RP1=0, select bank0
  4387  0478  01BA               	clrf	(_LostCommCounter)
  4388                           	line	749
  4389                           ;CoachMasterCode.c: 749: CommActive = 0;
  4390  0479  01B7               	clrf	(_CommActive)
  4391                           	line	750
  4392                           	
  4393  047A                     i1l4198:	
  4394                           ;CoachMasterCode.c: 750: PORTC_Copy&=~0x00000002;
  4395  047A  30FD               	movlw	(0FDh)
  4396  047B  00F0               	movwf	(??i1_XBee_State+0)+0
  4397  047C  0870               	movf	(??i1_XBee_State+0)+0,w
  4398  047D  05BE               	andwf	(_PORTC_Copy),f
  4399                           	line	751
  4400                           ;CoachMasterCode.c: 751: PORTC_Copy&=~0x00000004;
  4401  047E  30FB               	movlw	(0FBh)
  4402  047F  00F0               	movwf	(??i1_XBee_State+0)+0
  4403  0480  0870               	movf	(??i1_XBee_State+0)+0,w
  4404  0481  05BE               	andwf	(_PORTC_Copy),f
  4405                           	line	752
  4406                           	
  4407  0482                     i1l4200:	
  4408                           ;CoachMasterCode.c: 752: PORTC_Copy|=0x00000001;
  4409  0482  143E               	bsf	(_PORTC_Copy)+(0/8),(0)&7
  4410                           	line	753
  4411                           	
  4412  0483                     i1l4202:	
  4413                           ;CoachMasterCode.c: 753: PORTC = PORTC_Copy;
  4414  0483  083E               	movf	(_PORTC_Copy),w
  4415  0484  0087               	movwf	(7)	;volatile
  4416  0485  2C86               	goto	i1l1128
  4417                           	line	755
  4418                           	
  4419  0486                     i1l1127:	
  4420                           	line	756
  4421                           	
  4422  0486                     i1l1128:	
  4423  0486  0008               	return
  4424                           	opt stack 0
  4425                           GLOBAL	__end_ofi1_XBee_State
  4426  0487                     	__end_ofi1_XBee_State:
  4427 ;; =============== function i1_XBee_State ends ============
  4428                           
  4429                           	signat	i1_XBee_State,88
  4430                           	global	_Process_SPI
  4431                           psect	text437,local,class=CODE,delta=2
  4432                           global __ptext437
  4433  03F4                     __ptext437:
  4434                           
  4435 ;; *************** function _Process_SPI *****************
  4436 ;; Defined at:
  4437 ;;		line 891 in file "U:\_218c Teams\BringItOn\218C Project - World Cup\COACH CODE WE ARE USING\MasterCoach\MasterCoach\
       CoachMasterCode.c"
  4438 ;; Parameters:    Size  Location     Type
  4439 ;;		None
  4440 ;; Auto vars:     Size  Location     Type
  4441 ;;		None
  4442 ;; Return value:  Size  Location     Type
  4443 ;;		None               void
  4444 ;; Registers used:
  4445 ;;		wreg, status,2, status,0
  4446 ;; Tracked objects:
  4447 ;;		On entry : 0/0
  4448 ;;		On exit  : 0/0
  4449 ;;		Unchanged: 0/0
  4450 ;; Data sizes:     COMMON   BANK0   BANK1   BANK2
  4451 ;;      Params:         0       0       0       0
  4452 ;;      Locals:         0       0       0       0
  4453 ;;      Temps:          1       0       0       0
  4454 ;;      Totals:         1       0       0       0
  4455 ;;Total ram usage:        1 bytes
  4456 ;; Hardware stack levels used:    1
  4457 ;; This function calls:
  4458 ;;		Nothing
  4459 ;; This function is called by:
  4460 ;;		_ISR
  4461 ;; This function uses a non-reentrant model
  4462 ;;
  4463                           psect	text437
  4464                           	file	"U:\_218c Teams\BringItOn\218C Project - World Cup\COACH CODE WE ARE USING\MasterC
                                 oach\MasterCoach\CoachMasterCode.c"
  4465                           	line	891
  4466                           	global	__size_of_Process_SPI
  4467  0038                     	__size_of_Process_SPI	equ	__end_of_Process_SPI-_Process_SPI
  4468                           	
  4469  03F4                     _Process_SPI:	
  4470                           	opt	stack 5
  4471                           ; Regs used in _Process_SPI: [wreg+status,2+status,0]
  4472                           	line	892
  4473                           	
  4474  03F4                     i1l4170:	
  4475                           ;CoachMasterCode.c: 892: if ( BytesIn[5] != 0)
  4476  03F4  1283               	bcf	status, 5	;RP0=0, select bank0
  4477  03F5  1303               	bcf	status, 6	;RP1=0, select bank0
  4478  03F6  0825               	movf	0+(_BytesIn)+05h,w
  4479  03F7  1D03               	skipz
  4480  03F8  2BFA               	goto	u280_20
  4481  03F9  2BFF               	goto	i1l1144
  4482  03FA                     u280_20:
  4483                           	line	894
  4484                           	
  4485  03FA                     i1l4172:	
  4486                           ;CoachMasterCode.c: 893: {
  4487                           ;CoachMasterCode.c: 894: PORTC |= 0x00000008;
  4488  03FA  1587               	bsf	(7)+(3/8),(3)&7	;volatile
  4489                           	line	895
  4490                           	
  4491  03FB                     i1l4174:	
  4492                           ;CoachMasterCode.c: 895: SendKick = 0x0F;
  4493  03FB  300F               	movlw	(0Fh)
  4494  03FC  00F0               	movwf	(??_Process_SPI+0)+0
  4495  03FD  0870               	movf	(??_Process_SPI+0)+0,w
  4496  03FE  00CC               	movwf	(_SendKick)
  4497                           	line	896
  4498                           	
  4499  03FF                     i1l1144:	
  4500                           	line	897
  4501                           ;CoachMasterCode.c: 896: }
  4502                           ;CoachMasterCode.c: 897: if ( BytesIn[6] != 0)
  4503  03FF  0826               	movf	0+(_BytesIn)+06h,w
  4504  0400  1D03               	skipz
  4505  0401  2C03               	goto	u281_20
  4506  0402  2C07               	goto	i1l1145
  4507  0403                     u281_20:
  4508                           	line	900
  4509                           	
  4510  0403                     i1l4176:	
  4511                           ;CoachMasterCode.c: 898: {
  4512                           ;CoachMasterCode.c: 900: SendWhimsy = 0xFF;
  4513  0403  30FF               	movlw	(0FFh)
  4514  0404  00F0               	movwf	(??_Process_SPI+0)+0
  4515  0405  0870               	movf	(??_Process_SPI+0)+0,w
  4516  0406  00CD               	movwf	(_SendWhimsy)
  4517                           	line	901
  4518                           	
  4519  0407                     i1l1145:	
  4520                           	line	903
  4521                           ;CoachMasterCode.c: 901: }
  4522                           ;CoachMasterCode.c: 903: if ((BytesIn[0]==0x37)&&(BytesIn[7]==0x00))
  4523  0407  0820               	movf	(_BytesIn),w
  4524  0408  3A37               	xorlw	037h
  4525  0409  1D03               	skipz
  4526  040A  2C0C               	goto	u282_21
  4527  040B  2C0D               	goto	u282_20
  4528  040C                     u282_21:
  4529  040C  2C27               	goto	i1l1146
  4530  040D                     u282_20:
  4531                           	
  4532  040D                     i1l4178:	
  4533  040D  08A7               	movf	0+(_BytesIn)+07h,f
  4534  040E  1D03               	skipz
  4535  040F  2C11               	goto	u283_21
  4536  0410  2C12               	goto	u283_20
  4537  0411                     u283_21:
  4538  0411  2C27               	goto	i1l1146
  4539  0412                     u283_20:
  4540                           	line	905
  4541                           	
  4542  0412                     i1l4180:	
  4543                           ;CoachMasterCode.c: 904: {
  4544                           ;CoachMasterCode.c: 905: PAIRDATA = BytesIn[1];
  4545  0412  0821               	movf	0+(_BytesIn)+01h,w
  4546  0413  00F0               	movwf	(??_Process_SPI+0)+0
  4547  0414  0870               	movf	(??_Process_SPI+0)+0,w
  4548  0415  00D8               	movwf	(_PAIRDATA)
  4549                           	line	906
  4550                           ;CoachMasterCode.c: 906: SPD = BytesIn[2];
  4551  0416  0822               	movf	0+(_BytesIn)+02h,w
  4552  0417  00F0               	movwf	(??_Process_SPI+0)+0
  4553  0418  0870               	movf	(??_Process_SPI+0)+0,w
  4554  0419  00DB               	movwf	(_SPD)
  4555                           	line	907
  4556                           ;CoachMasterCode.c: 907: DIR = BytesIn[3];
  4557  041A  0823               	movf	0+(_BytesIn)+03h,w
  4558  041B  00F0               	movwf	(??_Process_SPI+0)+0
  4559  041C  0870               	movf	(??_Process_SPI+0)+0,w
  4560  041D  00D6               	movwf	(_DIR)
  4561                           	line	908
  4562                           ;CoachMasterCode.c: 908: AUX = SendKick;
  4563  041E  084C               	movf	(_SendKick),w
  4564  041F  00F0               	movwf	(??_Process_SPI+0)+0
  4565  0420  0870               	movf	(??_Process_SPI+0)+0,w
  4566  0421  00D4               	movwf	(_AUX)
  4567                           	line	909
  4568                           ;CoachMasterCode.c: 909: WHIM = SendWhimsy;
  4569  0422  084D               	movf	(_SendWhimsy),w
  4570  0423  00F0               	movwf	(??_Process_SPI+0)+0
  4571  0424  0870               	movf	(??_Process_SPI+0)+0,w
  4572  0425  00CF               	movwf	(_WHIM)
  4573                           	line	910
  4574                           	
  4575  0426                     i1l4182:	
  4576                           ;CoachMasterCode.c: 910: TRANS = 0;
  4577  0426  01CE               	clrf	(_TRANS)
  4578                           	line	911
  4579                           	
  4580  0427                     i1l1146:	
  4581                           	line	913
  4582                           ;CoachMasterCode.c: 911: }
  4583                           ;CoachMasterCode.c: 913: BytesOut[1] = SDATA;
  4584  0427  085A               	movf	(_SDATA),w
  4585  0428  00F0               	movwf	(??_Process_SPI+0)+0
  4586  0429  0870               	movf	(??_Process_SPI+0)+0,w
  4587  042A  00A9               	movwf	0+(_BytesOut)+01h
  4588                           	line	914
  4589                           	
  4590  042B                     i1l1147:	
  4591  042B  0008               	return
  4592                           	opt stack 0
  4593                           GLOBAL	__end_of_Process_SPI
  4594  042C                     	__end_of_Process_SPI:
  4595 ;; =============== function _Process_SPI ends ============
  4596                           
  4597                           	signat	_Process_SPI,88
  4598                           psect	text438,local,class=CODE,delta=2
  4599                           global __ptext438
  4600  0000                     __ptext438:
  4601                           	global	btemp
  4602  007E                     	btemp set 07Eh
  4603                           
  4604                           	DABS	1,126,2	;btemp
  4605                           	global	wtemp0
  4606  007E                     	wtemp0 set btemp


HI-TECH Software PICC Macro Assembler V9.82 build 9453 
Symbol Table                                                                                   Wed May 28 10:01:35 2014

                         _i 0053                           pc 0002                          _RD 0C60  
                        _WR 0C61                          fsr 0004                         _CKP 00A4  
                       _GIE 005F                         _DIR 0056                         _AUX 0054  
                       _PR2 0092                         _ISR 024F                         _SPD 005B  
                       fsr0 0004                         indf 0000                        S4722 04AB  
                      S4724 0500                        S4726 04EA                        ?_ISR 0070  
                      l1100 0566                        l1030 006C                        l1103 053D  
                      l1031 0075                        l1023 0028                        l1112 03C9  
                      l1120 0576                        l1024 024B                        l1040 00C8  
                      l1032 007E                        l1113 03D3                        l1025 015E  
                      l1041 00D7                        l1033 0087                        l1106 055D  
                      l1114 03DD                        l1026 0151                        l1050 012E  
                      l1042 00E4                        l1034 0090                        l1131 039B  
                      l1115 03E7                        l1051 013B                        l1043 00E5  
                      l1035 0099                        l1027 0032                        l1140 0399  
                      l1132 0311                        l1116 03F1                        l1060 0179  
                      l1028 015D                        l1052 013C                        l1044 00F4  
                      l1036 00A2                        l1109 0460                        l1141 03A9  
                      l1133 03A7                        l1117 03F3                        l1061 017A  
                      l1053 0149                        l1045 0101                        l1037 00AB  
                      l1029 0063                        l1134 031E                        l1126 049C  
                      l1054 0232                        l1070 01BD                        l1062 0183  
                      l1046 0102                        l1038 00BA                        l1135 032F  
                      l1127 04AA                        l1055 0225                        l1071 01C6  
                      l1063 0192                        l1047 0111                        l1039 00C7  
                      l1136 0340                        l1128 04AA                        l1080 0242  
                      l1072 01CF                        l1064 01A1                        l1056 0164  
                      l1048 011E                        l1137 0351                        l1081 024C  
                      l1073 01F8                        l1065 019E                        l1057 016E  
                      l1049 011F                        l1138 0366                        l1082 024D  
                      l1058 0231                        l1074 01F2                        l1066 01A0  
                      l1139 0377                        l1083 024D                        l1075 01F7  
                      l1067 01A2                        l1059 016F                        l1076 0205  
                      l1068 01AB                        l1077 0206                        l1069 01B4  
                      l1078 0211                        l1079 0223                        l4000 0366  
                      l4010 0377                        l4002 036E                        l4020 038A  
                      l4012 037A                        l4004 036F                        l4022 038E  
                      l4014 037E                        l4006 0370                        l4030 039B  
                      l4024 0392                        l4016 0382                        l4008 0371  
                      l4032 03A7                        l4040 03AE                        l4034 03A9  
                      l4026 0393                        l4018 0386                        l4050 03D3  
                      l4042 03BF                        l4028 0394                        l4060 03EE  
                      l4052 03DA                        l4044 03C6                        l4062 03F1  
                      l4054 03DD                        l4046 03C9                        l4038 03AA  
                      l4070 0491                        l4064 03F3                        l4056 03E4  
                      l4048 03D0                        l4080 049E                        l4072 0492  
                      l4058 03E7                        l4082 04A6                        l4074 0493  
                      l4066 048A                        l4084 04A7                        l4076 0497  
                      l4068 048E                        l4500 005A                        l4078 0498  
                      l4086 0572                        l4510 007E                        l4502 005E  
                      l4600 0198                        l4520 00AB                        l4512 0087  
                      l4504 0063                        l4610 01BD                        l4602 019C  
                      l4530 00C8                        l4522 00AD                        l4514 0090  
                      l4506 006C                        l4452 055E                        l4460 053B  
                      l3900 0452                        l4620 01E1                        l4612 01C6  
                      l4604 01A2                        l4540 00E5                        l4532 00CA  
                      l4524 00B1                        l4516 0099                        l4508 0075  
                      l4454 052C                        l3910 0457                        l3902 0453  
                      l4470 0556                        l4462 054F                        l4630 01F0  
                      l4622 01E5                        l4614 01D0                        l4606 01AB  
                      l4550 0102                        l4542 00E7                        l4534 00CE  
                      l4526 00BA                        l4518 00A2                        l4456 0530  
                      l3920 045C                        l3912 0458                        l3904 0454  
                      l4472 0559                        l4464 0551                        l4640 0212  
                      l4624 01E9                        l4632 01F2                        l4616 01DA  
                      l4608 01B4                        l4560 011F                        l4552 0104  
                      l4544 00EB                        l4536 00D7                        l4528 00BE  
                      l4480 002C                        l4458 0534                        l3922 045D  
                      l3914 0459                        l3906 0455                        l4466 0554  
                      l4642 021A                        l4626 01ED                        l4618 01DE  
                      l4634 01F8                        l4650 0225                        l4570 013C  
                      l4562 0121                        l4554 0108                        l4546 00F4  
                      l4538 00DB                        l4490 0045                        l4482 0030  
                      l4474 0013                        l3924 045E                        l3916 045A  
                      l3908 0456                        l4468 0555                        l3940 030F  
                      l4660 0242                        l4644 021D                        l4636 0200  
                      l4628 01EE                        l4652 0232                        l4572 0140  
                      l4564 0125                        l4556 0111                        l4548 00F8  
                      l4492 004A                        l4484 0032                        l4580 015E  
                      l4476 001F                        l3926 045F                        l3918 045B  
                      l3870 0431                        l3950 0318                        l3942 0311  
                      l4662 0246                        l4654 0238                        l4646 021E  
                      l4638 0206                        l4590 0174                        l4582 0162  
                      l4574 014B                        l4566 012E                        l4558 0115  
                      l4494 004E                        l4486 0038                        l4478 0028  
                      l3880 043E                        l3872 0433                        l3960 0327  
                      l3952 0319                        l3944 0315                        l4656 023C  
                      l4648 0224                        l4592 017A                        l4584 0164  
                      l4576 0150                        l4568 0132                        l4496 0052  
                      l4488 003C                        l3890 0443                        l3882 043F  
                      l3874 0437                        l3866 042C                        l3970 0338  
                      l3962 0328                        l3954 031A                        l3946 0316  
                      l4658 023F                        l4594 0183                        l4586 016A  
                      l4498 0056                        l4578 0151                        l3892 0444  
                      l3884 0440                        l3876 043A                        l3868 0430  
                      l3980 0349                        l3972 0339                        l3964 0329  
                      l3956 031E                        l3948 0317                        l4596 018D  
                      l4588 016F                        l3894 0448                        l3886 0441  
                      l3878 043D                        l3990 035A                        l3982 034A  
                      l3974 033A                        l3966 032F                        l3958 0326  
                      l4598 0192                        l3896 044A                        l3888 0442  
                      l3992 035B                        l3984 034B                        l3976 0340  
                      l3968 0337                        l3898 044E                        l3994 035C  
                      l3986 0351                        l3978 0348                        l3996 0361  
                      l3988 0359                        l3998 0363                        _IOCA 0096  
                      u3100 0162                        u3110 016A                        u3030 002C  
                      u3111 0169                        u3200 023C                        u3120 0174  
                      u3040 0030                        u3201 023B                        u3121 0173  
                      u3130 018D                        u3050 00B1                        u3131 018C  
                      u3140 0198                        u3060 00CE                        u3141 0197  
                      u3150 01DA                        u3070 00EB                        u3151 01D9  
                      u3160 01DE                        u3080 0108                        u3161 01DD  
                      u3170 0200                        u3090 0125                        u3171 01FF  
                      u3180 021A                        u2630 03C6                        u3190 0238  
                      u2631 03C5                        u2640 03D0                        u2641 03CF  
                      u2650 03DA                        u2651 03D9                        u2660 03E4  
                      u2661 03E3                        u2670 03EE                        u2671 03ED  
                      u2680 048E                        _RCIE 0465                        _RCIF 0065  
                      _PIR1 000C                        _SEND 004B                        _WCOL 00A7  
                      _WHIM 004F                        _WREN 0C62                        _TXIF 0064  
                      _main 0013                  _XBee_State 0487                        btemp 007E  
                      start 0011                       ??_ISR 0072        Process_Status@status 0069  
                _CommActive 0037                       ?_main 0070                       _EEADR 010D  
                     _CARRY 0018                       _ANSEL 011E                       _T2CON 0012  
                     _RABIF 0058                       _SDATA 005A                       _RCREG 001A  
                     _RCSTA 0018                       _SPBRG 0099                       _PORTA 0005  
                     _PORTB 0006                       _PORTC 0007                       _TRANS 004E  
                     _SSPM0 00A0                       _SSPM1 00A1                       _SSPM2 00A2  
                     _SSPM3 00A3                       _TRISA 0085                       _TRISB 0086  
                     _TRISC 0087                       _SSPIE 0463                       _SSPIF 0063  
                     _SSPEN 00A5                       _SSPOV 00A6                       _R_CMD 0043  
                     _R_API 0040                       _R_FID 0044                       _TXREG 0019  
                     _R_RF1 0047                       _TXSTA 0098                       _X_CMD 0060  
                     _X_API 005D                       _X_FID 0061                       _X_RF1 0062  
                     _X_RF2 0063                       _X_RF3 0064                       _X_RF4 0065  
                     _X_RF5 0066          Encode_Message@Type 0069                       pclath 000A  
                     status 0003                       wtemp0 007E                  _InitTimers 055E  
              __end_of_main 024F              _InitInterrupts 054F            __end_of_InitComm 0461  
                    ??_main 006E                 _R_LengthLSB 0045                 _R_LengthMSB 007A  
                    _EEDATA 010C                      _EECON1 018C                      _EECON2 018D  
                    _ANSELH 011F                  _SendWhimsy 004D                      i1l1126 0476  
                    i1l1127 0486                      i1l1144 03FF                      i1l1128 0486  
                    i1l1145 0407                      i1l1146 0427                      i1l1090 02CB  
                    i1l1147 042B                      i1l1091 02C7                      i1l1092 02C6  
                    i1l1093 02FA                      i1l1094 02DF                      i1l1086 025F  
                    i1l1095 02E9                      i1l1087 0299                      i1l1096 02F8  
                    i1l1088 0272                      i1l1097 02FF                      i1l1089 0289  
                    i1l4100 0264                      i1l4110 0284                      i1l4102 0270  
                    i1l4200 0482                      i1l4120 0297                      i1l4112 0285  
                    i1l4104 0272                      i1l4202 0483                      i1l4130 02B1  
                    i1l4114 0289                      i1l4106 027A                      i1l4122 0299  
                    i1l4140 02C1                      i1l4132 02B2                      i1l4124 029D  
                    i1l4116 028F                      i1l4108 027E                      i1l4150 02D7  
                    i1l4134 02B6                      i1l4126 02AC                      i1l4142 02C7  
                    i1l4118 0291                      i1l4160 02EF                      i1l4152 02DD  
                    i1l4136 02BA                      i1l4128 02AE                      i1l4144 02CB  
                    i1l4170 03F4                      i1l4162 02F3                      i1l4154 02DF  
                    i1l4146 02CF                      i1l4138 02C0                      i1l4090 0253  
                    i1l4180 0412                      i1l4172 03FA                      i1l4164 02F8  
                    i1l4156 02E5                      i1l4148 02D3                      i1l4092 0257  
                    i1l4182 0426                      i1l4174 03FB                      i1l4190 046C  
                    i1l4158 02E9                      i1l4166 02FA                      i1l4094 025A  
                    i1l4176 0403                      i1l4192 046D                      i1l4184 0462  
                    i1l4168 02FF                      i1l4096 025F                      i1l4088 024F  
                    i1l4178 040D                      i1l4194 0471                      i1l4186 0466  
                    i1l4098 0263                      i1l4196 0472                      i1l4188 046B  
                    i1l4198 047A                      _INTCON 000B                      u270_20 0263  
                    u270_21 0262                      u271_20 0270                      u271_21 026F  
                    u280_20 03FA                      u272_20 0284                      u272_21 0283  
                    u281_20 0403                      u273_20 029D                      u273_21 029C  
                    u282_20 040D                      u274_20 02AC                      u282_21 040C  
                    u274_21 02AB                      u283_20 0412                      u275_20 02C0  
                    u283_21 0411                      u275_21 02BF                      u284_20 0466  
                    u276_20 02CF                      u276_21 02CE                      u277_20 02DD  
                    u269_20 0257                      u277_21 02DC                      u269_21 0256  
                    u278_20 02E5                      u278_21 02E4                      u279_20 02EF  
                    u279_21 02EE                      _TMR2IE 0461                      _TMR2IF 0061  
                    _SPBRGH 009A                 ?_XBee_State 0070                      _SSPBUF 0013  
        __size_of_InitPorts 0012                      _TXData 0030                      _ByteIn 0036  
                    _Paired 003F      __end_of_InitInterrupts 055E                      clrloop 0568  
   __size_of_Encode_Message 009E                __pdataCOMMON 007D                      saved_w 007E  
             ??_Process_SPI 0070                  _SwitchMask 007D             ?_InitInterrupts 0070  
            _CurrentR_State 0038              __pcstackCOMMON 0070                 ?_InitTimers 0070  
               _X_LengthLSB 0050                 _X_LengthMSB 0051                __pidataBANK0 0518  
            _CurrentX_State 0039                 _CurrentType 0055           __end_of_InitPorts 053E  
       __size_of_XBee_State 0024     __size_of_Process_Status 0008                  __pbssBANK0 0020  
                 ?_InitComm 0070         __end_of_Process_SPI 042C               i1XBee_State@x 0071  
               _NextR_State 003C                  __pmaintext 0013                 _NextByteOut 0057  
               _NextX_State 003D                  __pintentry 0004               ?i1_XBee_State 0070  
                   _TAGINFO 005C         __size_of_InitTimers 0009                     _SPI_Var 007B  
                   _SSPSTAT 0094                  ??_InitComm 0068                     _BytesIn 0020  
            ??i1_XBee_State 0070              _Encode_Message 030C                __size_of_ISR 00BD  
      Encode_Message@Length 006A                 _Process_SPI 03F4        end_of_initialization 04E7  
              _R_Transition 004A               _PlayerAddress 0079                     init_ram 0542  
              ??_XBee_State 0068      __end_of_Encode_Message 03AA          __end_of_XBee_State 04AB  
            _MessageCounter 003B              _Process_Status 056F                   _TOCounter 0077  
          ??_InitInterrupts 0068                   _R_AddrLSB 0041                   _R_AddrMSB 0042  
               _SwitchState 007C                ??_InitTimers 0068             ?_Encode_Message 0070  
             __pidataCOMMON 0577                   _X_AddrLSB 005E                   _X_AddrMSB 005F  
                 _R_Options 0046      __end_of_Process_Status 0577         start_initialization 04CB  
               __end_of_ISR 030C                   _InitPorts 052C          __end_of_InitTimers 0567  
                 _X_Options 0052        __end_ofi1_XBee_State 0487           __size_of_InitComm 0035  
               __pdataBANK0 0054           _CalculateChecksum 03AA          ?_CalculateChecksum 0070  
               __pbssCOMMON 0077             ?_Process_Status 0070               __pcstackBANK0 0068  
                ?_InitPorts 0070         ??_CalculateChecksum 0068                _X_Transition 0067  
                 __ptext430 030C                   __ptext431 054F                   __ptext432 042C  
                 __ptext433 052C                   __ptext434 055E                   __ptext435 024F  
                 __ptext427 056F                   __ptext436 0461                   __ptext428 0487  
                 __ptext437 03F4                   __ptext429 03AA                   __ptext438 0000  
 __end_of_CalculateChecksum 03F4                   __pswtext1 04AB                   __pswtext2 0500  
                 __pswtext3 04EA                ?_Process_SPI 0070           interrupt_function 0004  
                  _PAIRDATA 0058                    _RESPDATA 0059             _LostCommCounter 003A  
                  _R_STATUS 0048                 ??_InitPorts 0068       __size_ofi1_XBee_State 0026  
                  _R_SigStr 0049                 XBee_State@x 0069                    _InitComm 042C  
                  _BytesOut 0028                    _SendKick 004C            ??_Encode_Message 0068  
                 init_fetch 053E  __size_of_CalculateChecksum 004A                i1_XBee_State 0461  
             __size_of_main 023C                    clear_ram 0567            ??_Process_Status 0068  
 CalculateChecksum@checksum 006D        __size_of_Process_SPI 0038                    intlevel1 0000  
   __size_of_InitInterrupts 000F                  _PORTC_Copy 003E  
